; ModuleID = 'adi.cu'
source_filename = "adi.cu"
target datalayout = "e-m:e-i64:64-f80:128-n8:16:32:64-S128"
target triple = "x86_64-unknown-linux-gnu"

%struct._IO_FILE = type { i32, i8*, i8*, i8*, i8*, i8*, i8*, i8*, i8*, i8*, i8*, i8*, %struct._IO_marker*, %struct._IO_FILE*, i32, i32, i64, i16, i8, [1 x i8], i8*, i64, %struct._IO_codecvt*, %struct._IO_wide_data*, %struct._IO_FILE*, i8*, i64, i32, [20 x i8] }
%struct._IO_marker = type opaque
%struct._IO_codecvt = type opaque
%struct._IO_wide_data = type opaque
%struct.dim3 = type { i32, i32, i32 }
%struct.CUstream_st = type opaque

$_ZN4dim3C2Ejjj = comdat any

@stderr = external dso_local global %struct._IO_FILE*, align 8
@.str = private unnamed_addr constant [8 x i8] c"%0.2lf \00", align 1
@.str.1 = private unnamed_addr constant [2 x i8] c"\0A\00", align 1

; Function Attrs: noinline uwtable
define dso_local void @_Z19kernel_column_sweepiiPdS_S_S_dddddd(i32 %tsteps, i32 %n, double* %u, double* %v, double* %p, double* %q, double %a, double %b, double %c, double %d, double %e, double %f) #0 !dbg !692 {
entry:
  %tsteps.addr = alloca i32, align 4
  %n.addr = alloca i32, align 4
  %u.addr = alloca double*, align 8
  %v.addr = alloca double*, align 8
  %p.addr = alloca double*, align 8
  %q.addr = alloca double*, align 8
  %a.addr = alloca double, align 8
  %b.addr = alloca double, align 8
  %c.addr = alloca double, align 8
  %d.addr = alloca double, align 8
  %e.addr = alloca double, align 8
  %f.addr = alloca double, align 8
  store i32 %tsteps, i32* %tsteps.addr, align 4
  call void @llvm.dbg.declare(metadata i32* %tsteps.addr, metadata !696, metadata !DIExpression()), !dbg !697
  store i32 %n, i32* %n.addr, align 4
  call void @llvm.dbg.declare(metadata i32* %n.addr, metadata !698, metadata !DIExpression()), !dbg !699
  store double* %u, double** %u.addr, align 8
  call void @llvm.dbg.declare(metadata double** %u.addr, metadata !700, metadata !DIExpression()), !dbg !701
  store double* %v, double** %v.addr, align 8
  call void @llvm.dbg.declare(metadata double** %v.addr, metadata !702, metadata !DIExpression()), !dbg !703
  store double* %p, double** %p.addr, align 8
  call void @llvm.dbg.declare(metadata double** %p.addr, metadata !704, metadata !DIExpression()), !dbg !705
  store double* %q, double** %q.addr, align 8
  call void @llvm.dbg.declare(metadata double** %q.addr, metadata !706, metadata !DIExpression()), !dbg !707
  store double %a, double* %a.addr, align 8
  call void @llvm.dbg.declare(metadata double* %a.addr, metadata !708, metadata !DIExpression()), !dbg !709
  store double %b, double* %b.addr, align 8
  call void @llvm.dbg.declare(metadata double* %b.addr, metadata !710, metadata !DIExpression()), !dbg !711
  store double %c, double* %c.addr, align 8
  call void @llvm.dbg.declare(metadata double* %c.addr, metadata !712, metadata !DIExpression()), !dbg !713
  store double %d, double* %d.addr, align 8
  call void @llvm.dbg.declare(metadata double* %d.addr, metadata !714, metadata !DIExpression()), !dbg !715
  store double %e, double* %e.addr, align 8
  call void @llvm.dbg.declare(metadata double* %e.addr, metadata !716, metadata !DIExpression()), !dbg !717
  store double %f, double* %f.addr, align 8
  call void @llvm.dbg.declare(metadata double* %f.addr, metadata !718, metadata !DIExpression()), !dbg !719
  %0 = bitcast i32* %tsteps.addr to i8*, !dbg !720
  %1 = call i32 @cudaSetupArgument(i8* %0, i64 4, i64 0), !dbg !720
  %2 = icmp eq i32 %1, 0, !dbg !720
  br i1 %2, label %setup.next, label %setup.end, !dbg !720

setup.next:                                       ; preds = %entry
  %3 = bitcast i32* %n.addr to i8*, !dbg !720
  %4 = call i32 @cudaSetupArgument(i8* %3, i64 4, i64 4), !dbg !720
  %5 = icmp eq i32 %4, 0, !dbg !720
  br i1 %5, label %setup.next1, label %setup.end, !dbg !720

setup.next1:                                      ; preds = %setup.next
  %6 = bitcast double** %u.addr to i8*, !dbg !720
  %7 = call i32 @cudaSetupArgument(i8* %6, i64 8, i64 8), !dbg !720
  %8 = icmp eq i32 %7, 0, !dbg !720
  br i1 %8, label %setup.next2, label %setup.end, !dbg !720

setup.next2:                                      ; preds = %setup.next1
  %9 = bitcast double** %v.addr to i8*, !dbg !720
  %10 = call i32 @cudaSetupArgument(i8* %9, i64 8, i64 16), !dbg !720
  %11 = icmp eq i32 %10, 0, !dbg !720
  br i1 %11, label %setup.next3, label %setup.end, !dbg !720

setup.next3:                                      ; preds = %setup.next2
  %12 = bitcast double** %p.addr to i8*, !dbg !720
  %13 = call i32 @cudaSetupArgument(i8* %12, i64 8, i64 24), !dbg !720
  %14 = icmp eq i32 %13, 0, !dbg !720
  br i1 %14, label %setup.next4, label %setup.end, !dbg !720

setup.next4:                                      ; preds = %setup.next3
  %15 = bitcast double** %q.addr to i8*, !dbg !720
  %16 = call i32 @cudaSetupArgument(i8* %15, i64 8, i64 32), !dbg !720
  %17 = icmp eq i32 %16, 0, !dbg !720
  br i1 %17, label %setup.next5, label %setup.end, !dbg !720

setup.next5:                                      ; preds = %setup.next4
  %18 = bitcast double* %a.addr to i8*, !dbg !720
  %19 = call i32 @cudaSetupArgument(i8* %18, i64 8, i64 40), !dbg !720
  %20 = icmp eq i32 %19, 0, !dbg !720
  br i1 %20, label %setup.next6, label %setup.end, !dbg !720

setup.next6:                                      ; preds = %setup.next5
  %21 = bitcast double* %b.addr to i8*, !dbg !720
  %22 = call i32 @cudaSetupArgument(i8* %21, i64 8, i64 48), !dbg !720
  %23 = icmp eq i32 %22, 0, !dbg !720
  br i1 %23, label %setup.next7, label %setup.end, !dbg !720

setup.next7:                                      ; preds = %setup.next6
  %24 = bitcast double* %c.addr to i8*, !dbg !720
  %25 = call i32 @cudaSetupArgument(i8* %24, i64 8, i64 56), !dbg !720
  %26 = icmp eq i32 %25, 0, !dbg !720
  br i1 %26, label %setup.next8, label %setup.end, !dbg !720

setup.next8:                                      ; preds = %setup.next7
  %27 = bitcast double* %d.addr to i8*, !dbg !720
  %28 = call i32 @cudaSetupArgument(i8* %27, i64 8, i64 64), !dbg !720
  %29 = icmp eq i32 %28, 0, !dbg !720
  br i1 %29, label %setup.next9, label %setup.end, !dbg !720

setup.next9:                                      ; preds = %setup.next8
  %30 = bitcast double* %e.addr to i8*, !dbg !720
  %31 = call i32 @cudaSetupArgument(i8* %30, i64 8, i64 72), !dbg !720
  %32 = icmp eq i32 %31, 0, !dbg !720
  br i1 %32, label %setup.next10, label %setup.end, !dbg !720

setup.next10:                                     ; preds = %setup.next9
  %33 = bitcast double* %f.addr to i8*, !dbg !720
  %34 = call i32 @cudaSetupArgument(i8* %33, i64 8, i64 80), !dbg !720
  %35 = icmp eq i32 %34, 0, !dbg !720
  br i1 %35, label %setup.next11, label %setup.end, !dbg !720

setup.next11:                                     ; preds = %setup.next10
  %36 = call i32 @cudaLaunch(i8* bitcast (void (i32, i32, double*, double*, double*, double*, double, double, double, double, double, double)* @_Z19kernel_column_sweepiiPdS_S_S_dddddd to i8*)), !dbg !720
  br label %setup.end, !dbg !720

setup.end:                                        ; preds = %setup.next11, %setup.next10, %setup.next9, %setup.next8, %setup.next7, %setup.next6, %setup.next5, %setup.next4, %setup.next3, %setup.next2, %setup.next1, %setup.next, %entry
  ret void, !dbg !721
}

; Function Attrs: nounwind readnone speculatable
declare void @llvm.dbg.declare(metadata, metadata, metadata) #1

declare dso_local i32 @cudaSetupArgument(i8*, i64, i64)

declare dso_local i32 @cudaLaunch(i8*)

; Function Attrs: noinline uwtable
define dso_local void @_Z16kernel_row_sweepiiPdS_S_S_dddddd(i32 %tsteps, i32 %n, double* %u, double* %v, double* %p, double* %q, double %a, double %b, double %c, double %d, double %e, double %f) #0 !dbg !722 {
entry:
  %tsteps.addr = alloca i32, align 4
  %n.addr = alloca i32, align 4
  %u.addr = alloca double*, align 8
  %v.addr = alloca double*, align 8
  %p.addr = alloca double*, align 8
  %q.addr = alloca double*, align 8
  %a.addr = alloca double, align 8
  %b.addr = alloca double, align 8
  %c.addr = alloca double, align 8
  %d.addr = alloca double, align 8
  %e.addr = alloca double, align 8
  %f.addr = alloca double, align 8
  store i32 %tsteps, i32* %tsteps.addr, align 4
  call void @llvm.dbg.declare(metadata i32* %tsteps.addr, metadata !723, metadata !DIExpression()), !dbg !724
  store i32 %n, i32* %n.addr, align 4
  call void @llvm.dbg.declare(metadata i32* %n.addr, metadata !725, metadata !DIExpression()), !dbg !726
  store double* %u, double** %u.addr, align 8
  call void @llvm.dbg.declare(metadata double** %u.addr, metadata !727, metadata !DIExpression()), !dbg !728
  store double* %v, double** %v.addr, align 8
  call void @llvm.dbg.declare(metadata double** %v.addr, metadata !729, metadata !DIExpression()), !dbg !730
  store double* %p, double** %p.addr, align 8
  call void @llvm.dbg.declare(metadata double** %p.addr, metadata !731, metadata !DIExpression()), !dbg !732
  store double* %q, double** %q.addr, align 8
  call void @llvm.dbg.declare(metadata double** %q.addr, metadata !733, metadata !DIExpression()), !dbg !734
  store double %a, double* %a.addr, align 8
  call void @llvm.dbg.declare(metadata double* %a.addr, metadata !735, metadata !DIExpression()), !dbg !736
  store double %b, double* %b.addr, align 8
  call void @llvm.dbg.declare(metadata double* %b.addr, metadata !737, metadata !DIExpression()), !dbg !738
  store double %c, double* %c.addr, align 8
  call void @llvm.dbg.declare(metadata double* %c.addr, metadata !739, metadata !DIExpression()), !dbg !740
  store double %d, double* %d.addr, align 8
  call void @llvm.dbg.declare(metadata double* %d.addr, metadata !741, metadata !DIExpression()), !dbg !742
  store double %e, double* %e.addr, align 8
  call void @llvm.dbg.declare(metadata double* %e.addr, metadata !743, metadata !DIExpression()), !dbg !744
  store double %f, double* %f.addr, align 8
  call void @llvm.dbg.declare(metadata double* %f.addr, metadata !745, metadata !DIExpression()), !dbg !746
  %0 = bitcast i32* %tsteps.addr to i8*, !dbg !747
  %1 = call i32 @cudaSetupArgument(i8* %0, i64 4, i64 0), !dbg !747
  %2 = icmp eq i32 %1, 0, !dbg !747
  br i1 %2, label %setup.next, label %setup.end, !dbg !747

setup.next:                                       ; preds = %entry
  %3 = bitcast i32* %n.addr to i8*, !dbg !747
  %4 = call i32 @cudaSetupArgument(i8* %3, i64 4, i64 4), !dbg !747
  %5 = icmp eq i32 %4, 0, !dbg !747
  br i1 %5, label %setup.next1, label %setup.end, !dbg !747

setup.next1:                                      ; preds = %setup.next
  %6 = bitcast double** %u.addr to i8*, !dbg !747
  %7 = call i32 @cudaSetupArgument(i8* %6, i64 8, i64 8), !dbg !747
  %8 = icmp eq i32 %7, 0, !dbg !747
  br i1 %8, label %setup.next2, label %setup.end, !dbg !747

setup.next2:                                      ; preds = %setup.next1
  %9 = bitcast double** %v.addr to i8*, !dbg !747
  %10 = call i32 @cudaSetupArgument(i8* %9, i64 8, i64 16), !dbg !747
  %11 = icmp eq i32 %10, 0, !dbg !747
  br i1 %11, label %setup.next3, label %setup.end, !dbg !747

setup.next3:                                      ; preds = %setup.next2
  %12 = bitcast double** %p.addr to i8*, !dbg !747
  %13 = call i32 @cudaSetupArgument(i8* %12, i64 8, i64 24), !dbg !747
  %14 = icmp eq i32 %13, 0, !dbg !747
  br i1 %14, label %setup.next4, label %setup.end, !dbg !747

setup.next4:                                      ; preds = %setup.next3
  %15 = bitcast double** %q.addr to i8*, !dbg !747
  %16 = call i32 @cudaSetupArgument(i8* %15, i64 8, i64 32), !dbg !747
  %17 = icmp eq i32 %16, 0, !dbg !747
  br i1 %17, label %setup.next5, label %setup.end, !dbg !747

setup.next5:                                      ; preds = %setup.next4
  %18 = bitcast double* %a.addr to i8*, !dbg !747
  %19 = call i32 @cudaSetupArgument(i8* %18, i64 8, i64 40), !dbg !747
  %20 = icmp eq i32 %19, 0, !dbg !747
  br i1 %20, label %setup.next6, label %setup.end, !dbg !747

setup.next6:                                      ; preds = %setup.next5
  %21 = bitcast double* %b.addr to i8*, !dbg !747
  %22 = call i32 @cudaSetupArgument(i8* %21, i64 8, i64 48), !dbg !747
  %23 = icmp eq i32 %22, 0, !dbg !747
  br i1 %23, label %setup.next7, label %setup.end, !dbg !747

setup.next7:                                      ; preds = %setup.next6
  %24 = bitcast double* %c.addr to i8*, !dbg !747
  %25 = call i32 @cudaSetupArgument(i8* %24, i64 8, i64 56), !dbg !747
  %26 = icmp eq i32 %25, 0, !dbg !747
  br i1 %26, label %setup.next8, label %setup.end, !dbg !747

setup.next8:                                      ; preds = %setup.next7
  %27 = bitcast double* %d.addr to i8*, !dbg !747
  %28 = call i32 @cudaSetupArgument(i8* %27, i64 8, i64 64), !dbg !747
  %29 = icmp eq i32 %28, 0, !dbg !747
  br i1 %29, label %setup.next9, label %setup.end, !dbg !747

setup.next9:                                      ; preds = %setup.next8
  %30 = bitcast double* %e.addr to i8*, !dbg !747
  %31 = call i32 @cudaSetupArgument(i8* %30, i64 8, i64 72), !dbg !747
  %32 = icmp eq i32 %31, 0, !dbg !747
  br i1 %32, label %setup.next10, label %setup.end, !dbg !747

setup.next10:                                     ; preds = %setup.next9
  %33 = bitcast double* %f.addr to i8*, !dbg !747
  %34 = call i32 @cudaSetupArgument(i8* %33, i64 8, i64 80), !dbg !747
  %35 = icmp eq i32 %34, 0, !dbg !747
  br i1 %35, label %setup.next11, label %setup.end, !dbg !747

setup.next11:                                     ; preds = %setup.next10
  %36 = call i32 @cudaLaunch(i8* bitcast (void (i32, i32, double*, double*, double*, double*, double, double, double, double, double, double)* @_Z16kernel_row_sweepiiPdS_S_S_dddddd to i8*)), !dbg !747
  br label %setup.end, !dbg !747

setup.end:                                        ; preds = %setup.next11, %setup.next10, %setup.next9, %setup.next8, %setup.next7, %setup.next6, %setup.next5, %setup.next4, %setup.next3, %setup.next2, %setup.next1, %setup.next, %entry
  ret void, !dbg !748
}

; Function Attrs: noinline norecurse uwtable
define dso_local i32 @main(i32 %argc, i8** %argv) #2 !dbg !749 {
entry:
  %retval = alloca i32, align 4
  %argc.addr = alloca i32, align 4
  %argv.addr = alloca i8**, align 8
  %n = alloca i32, align 4
  %tsteps = alloca i32, align 4
  %dump_code = alloca i32, align 4
  %u = alloca double*, align 8
  %v = alloca double*, align 8
  %p = alloca double*, align 8
  %q = alloca double*, align 8
  store i32 0, i32* %retval, align 4
  store i32 %argc, i32* %argc.addr, align 4
  call void @llvm.dbg.declare(metadata i32* %argc.addr, metadata !752, metadata !DIExpression()), !dbg !753
  store i8** %argv, i8*** %argv.addr, align 8
  call void @llvm.dbg.declare(metadata i8*** %argv.addr, metadata !754, metadata !DIExpression()), !dbg !755
  call void @llvm.dbg.declare(metadata i32* %n, metadata !756, metadata !DIExpression()), !dbg !757
  %0 = load i8**, i8*** %argv.addr, align 8, !dbg !758
  %arrayidx = getelementptr inbounds i8*, i8** %0, i64 2, !dbg !758
  %1 = load i8*, i8** %arrayidx, align 8, !dbg !758
  %call = call i32 @atoi(i8* %1) #8, !dbg !759
  store i32 %call, i32* %n, align 4, !dbg !757
  call void @llvm.dbg.declare(metadata i32* %tsteps, metadata !760, metadata !DIExpression()), !dbg !761
  %2 = load i8**, i8*** %argv.addr, align 8, !dbg !762
  %arrayidx1 = getelementptr inbounds i8*, i8** %2, i64 3, !dbg !762
  %3 = load i8*, i8** %arrayidx1, align 8, !dbg !762
  %call2 = call i32 @atoi(i8* %3) #8, !dbg !763
  store i32 %call2, i32* %tsteps, align 4, !dbg !761
  call void @llvm.dbg.declare(metadata i32* %dump_code, metadata !764, metadata !DIExpression()), !dbg !765
  %4 = load i8**, i8*** %argv.addr, align 8, !dbg !766
  %arrayidx3 = getelementptr inbounds i8*, i8** %4, i64 1, !dbg !766
  %5 = load i8*, i8** %arrayidx3, align 8, !dbg !766
  %call4 = call i32 @atoi(i8* %5) #8, !dbg !767
  store i32 %call4, i32* %dump_code, align 4, !dbg !765
  call void @llvm.dbg.declare(metadata double** %u, metadata !768, metadata !DIExpression()), !dbg !769
  %6 = load i32, i32* %n, align 4, !dbg !770
  %7 = load i32, i32* %n, align 4, !dbg !771
  %mul = mul nsw i32 %6, %7, !dbg !772
  %conv = sext i32 %mul to i64, !dbg !770
  %mul5 = mul i64 %conv, 8, !dbg !773
  %call6 = call noalias i8* @malloc(i64 %mul5) #9, !dbg !774
  %8 = bitcast i8* %call6 to double*, !dbg !775
  store double* %8, double** %u, align 8, !dbg !769
  call void @llvm.dbg.declare(metadata double** %v, metadata !776, metadata !DIExpression()), !dbg !777
  %9 = load i32, i32* %n, align 4, !dbg !778
  %10 = load i32, i32* %n, align 4, !dbg !779
  %mul7 = mul nsw i32 %9, %10, !dbg !780
  %conv8 = sext i32 %mul7 to i64, !dbg !778
  %mul9 = mul i64 %conv8, 8, !dbg !781
  %call10 = call noalias i8* @malloc(i64 %mul9) #9, !dbg !782
  %11 = bitcast i8* %call10 to double*, !dbg !783
  store double* %11, double** %v, align 8, !dbg !777
  call void @llvm.dbg.declare(metadata double** %p, metadata !784, metadata !DIExpression()), !dbg !785
  %12 = load i32, i32* %n, align 4, !dbg !786
  %13 = load i32, i32* %n, align 4, !dbg !787
  %mul11 = mul nsw i32 %12, %13, !dbg !788
  %conv12 = sext i32 %mul11 to i64, !dbg !786
  %mul13 = mul i64 %conv12, 8, !dbg !789
  %call14 = call noalias i8* @malloc(i64 %mul13) #9, !dbg !790
  %14 = bitcast i8* %call14 to double*, !dbg !791
  store double* %14, double** %p, align 8, !dbg !785
  call void @llvm.dbg.declare(metadata double** %q, metadata !792, metadata !DIExpression()), !dbg !793
  %15 = load i32, i32* %n, align 4, !dbg !794
  %16 = load i32, i32* %n, align 4, !dbg !795
  %mul15 = mul nsw i32 %15, %16, !dbg !796
  %conv16 = sext i32 %mul15 to i64, !dbg !794
  %mul17 = mul i64 %conv16, 8, !dbg !797
  %call18 = call noalias i8* @malloc(i64 %mul17) #9, !dbg !798
  %17 = bitcast i8* %call18 to double*, !dbg !799
  store double* %17, double** %q, align 8, !dbg !793
  %18 = load i32, i32* %n, align 4, !dbg !800
  %19 = load double*, double** %u, align 8, !dbg !801
  %20 = load double*, double** %v, align 8, !dbg !802
  %21 = load double*, double** %p, align 8, !dbg !803
  %22 = load double*, double** %q, align 8, !dbg !804
  call void @_ZL10init_arrayiPdS_S_S_(i32 %18, double* %19, double* %20, double* %21, double* %22), !dbg !805
  %23 = load i32, i32* %tsteps, align 4, !dbg !806
  %24 = load i32, i32* %n, align 4, !dbg !807
  %25 = load double*, double** %u, align 8, !dbg !808
  %26 = load double*, double** %v, align 8, !dbg !809
  %27 = load double*, double** %p, align 8, !dbg !810
  %28 = load double*, double** %q, align 8, !dbg !811
  call void @_ZL6kerneliiPdS_S_S_(i32 %23, i32 %24, double* %25, double* %26, double* %27, double* %28), !dbg !812
  %29 = load i32, i32* %dump_code, align 4, !dbg !813
  %cmp = icmp eq i32 %29, 1, !dbg !815
  br i1 %cmp, label %if.then, label %if.end, !dbg !816

if.then:                                          ; preds = %entry
  %30 = load i32, i32* %n, align 4, !dbg !817
  %31 = load double*, double** %u, align 8, !dbg !818
  call void @_ZL11print_arrayiPd(i32 %30, double* %31), !dbg !819
  br label %if.end, !dbg !819

if.end:                                           ; preds = %if.then, %entry
  %32 = load double*, double** %u, align 8, !dbg !820
  %33 = bitcast double* %32 to i8*, !dbg !820
  call void @free(i8* %33) #9, !dbg !821
  %34 = load double*, double** %v, align 8, !dbg !822
  %35 = bitcast double* %34 to i8*, !dbg !822
  call void @free(i8* %35) #9, !dbg !823
  %36 = load double*, double** %p, align 8, !dbg !824
  %37 = bitcast double* %36 to i8*, !dbg !824
  call void @free(i8* %37) #9, !dbg !825
  %38 = load double*, double** %q, align 8, !dbg !826
  %39 = bitcast double* %38 to i8*, !dbg !826
  call void @free(i8* %39) #9, !dbg !827
  ret i32 0, !dbg !828
}

; Function Attrs: nounwind readonly
declare dso_local i32 @atoi(i8*) #3

; Function Attrs: nounwind
declare dso_local noalias i8* @malloc(i64) #4

; Function Attrs: noinline nounwind uwtable
define internal void @_ZL10init_arrayiPdS_S_S_(i32 %n, double* %u, double* %v, double* %p, double* %q) #5 !dbg !829 {
entry:
  %n.addr = alloca i32, align 4
  %u.addr = alloca double*, align 8
  %v.addr = alloca double*, align 8
  %p.addr = alloca double*, align 8
  %q.addr = alloca double*, align 8
  %i = alloca i32, align 4
  %j = alloca i32, align 4
  store i32 %n, i32* %n.addr, align 4
  call void @llvm.dbg.declare(metadata i32* %n.addr, metadata !832, metadata !DIExpression()), !dbg !833
  store double* %u, double** %u.addr, align 8
  call void @llvm.dbg.declare(metadata double** %u.addr, metadata !834, metadata !DIExpression()), !dbg !835
  store double* %v, double** %v.addr, align 8
  call void @llvm.dbg.declare(metadata double** %v.addr, metadata !836, metadata !DIExpression()), !dbg !837
  store double* %p, double** %p.addr, align 8
  call void @llvm.dbg.declare(metadata double** %p.addr, metadata !838, metadata !DIExpression()), !dbg !839
  store double* %q, double** %q.addr, align 8
  call void @llvm.dbg.declare(metadata double** %q.addr, metadata !840, metadata !DIExpression()), !dbg !841
  call void @llvm.dbg.declare(metadata i32* %i, metadata !842, metadata !DIExpression()), !dbg !843
  call void @llvm.dbg.declare(metadata i32* %j, metadata !844, metadata !DIExpression()), !dbg !845
  store i32 0, i32* %i, align 4, !dbg !846
  br label %for.cond, !dbg !848

for.cond:                                         ; preds = %for.inc18, %entry
  %0 = load i32, i32* %i, align 4, !dbg !849
  %1 = load i32, i32* %n.addr, align 4, !dbg !851
  %cmp = icmp slt i32 %0, %1, !dbg !852
  br i1 %cmp, label %for.body, label %for.end20, !dbg !853

for.body:                                         ; preds = %for.cond
  store i32 0, i32* %j, align 4, !dbg !854
  br label %for.cond1, !dbg !856

for.cond1:                                        ; preds = %for.inc, %for.body
  %2 = load i32, i32* %j, align 4, !dbg !857
  %3 = load i32, i32* %n.addr, align 4, !dbg !859
  %cmp2 = icmp slt i32 %2, %3, !dbg !860
  br i1 %cmp2, label %for.body3, label %for.end, !dbg !861

for.body3:                                        ; preds = %for.cond1
  %4 = load i32, i32* %i, align 4, !dbg !862
  %5 = load i32, i32* %n.addr, align 4, !dbg !864
  %add = add nsw i32 %4, %5, !dbg !865
  %6 = load i32, i32* %j, align 4, !dbg !866
  %sub = sub nsw i32 %add, %6, !dbg !867
  %conv = sitofp i32 %sub to double, !dbg !868
  %7 = load i32, i32* %n.addr, align 4, !dbg !869
  %conv4 = sitofp i32 %7 to double, !dbg !869
  %div = fdiv double %conv, %conv4, !dbg !870
  %8 = load double*, double** %u.addr, align 8, !dbg !871
  %9 = load i32, i32* %i, align 4, !dbg !872
  %10 = load i32, i32* %n.addr, align 4, !dbg !873
  %mul = mul nsw i32 %9, %10, !dbg !874
  %11 = load i32, i32* %j, align 4, !dbg !875
  %add5 = add nsw i32 %mul, %11, !dbg !876
  %idxprom = sext i32 %add5 to i64, !dbg !871
  %arrayidx = getelementptr inbounds double, double* %8, i64 %idxprom, !dbg !871
  store double %div, double* %arrayidx, align 8, !dbg !877
  %12 = load double*, double** %v.addr, align 8, !dbg !878
  %13 = load i32, i32* %i, align 4, !dbg !879
  %14 = load i32, i32* %n.addr, align 4, !dbg !880
  %mul6 = mul nsw i32 %13, %14, !dbg !881
  %15 = load i32, i32* %j, align 4, !dbg !882
  %add7 = add nsw i32 %mul6, %15, !dbg !883
  %idxprom8 = sext i32 %add7 to i64, !dbg !878
  %arrayidx9 = getelementptr inbounds double, double* %12, i64 %idxprom8, !dbg !878
  store double 0.000000e+00, double* %arrayidx9, align 8, !dbg !884
  %16 = load double*, double** %p.addr, align 8, !dbg !885
  %17 = load i32, i32* %i, align 4, !dbg !886
  %18 = load i32, i32* %n.addr, align 4, !dbg !887
  %mul10 = mul nsw i32 %17, %18, !dbg !888
  %19 = load i32, i32* %j, align 4, !dbg !889
  %add11 = add nsw i32 %mul10, %19, !dbg !890
  %idxprom12 = sext i32 %add11 to i64, !dbg !885
  %arrayidx13 = getelementptr inbounds double, double* %16, i64 %idxprom12, !dbg !885
  store double 0.000000e+00, double* %arrayidx13, align 8, !dbg !891
  %20 = load double*, double** %q.addr, align 8, !dbg !892
  %21 = load i32, i32* %i, align 4, !dbg !893
  %22 = load i32, i32* %n.addr, align 4, !dbg !894
  %mul14 = mul nsw i32 %21, %22, !dbg !895
  %23 = load i32, i32* %j, align 4, !dbg !896
  %add15 = add nsw i32 %mul14, %23, !dbg !897
  %idxprom16 = sext i32 %add15 to i64, !dbg !892
  %arrayidx17 = getelementptr inbounds double, double* %20, i64 %idxprom16, !dbg !892
  store double 0.000000e+00, double* %arrayidx17, align 8, !dbg !898
  br label %for.inc, !dbg !899

for.inc:                                          ; preds = %for.body3
  %24 = load i32, i32* %j, align 4, !dbg !900
  %inc = add nsw i32 %24, 1, !dbg !900
  store i32 %inc, i32* %j, align 4, !dbg !900
  br label %for.cond1, !dbg !901, !llvm.loop !902

for.end:                                          ; preds = %for.cond1
  br label %for.inc18, !dbg !903

for.inc18:                                        ; preds = %for.end
  %25 = load i32, i32* %i, align 4, !dbg !904
  %inc19 = add nsw i32 %25, 1, !dbg !904
  store i32 %inc19, i32* %i, align 4, !dbg !904
  br label %for.cond, !dbg !905, !llvm.loop !906

for.end20:                                        ; preds = %for.cond
  ret void, !dbg !908
}

; Function Attrs: noinline uwtable
define internal void @_ZL6kerneliiPdS_S_S_(i32 %tsteps, i32 %n, double* %u, double* %v, double* %p, double* %q) #0 !dbg !909 {
entry:
  %tsteps.addr = alloca i32, align 4
  %n.addr = alloca i32, align 4
  %u.addr = alloca double*, align 8
  %v.addr = alloca double*, align 8
  %p.addr = alloca double*, align 8
  %q.addr = alloca double*, align 8
  %threadsPerBlock = alloca i32, align 4
  %DX = alloca double, align 8
  %DY = alloca double, align 8
  %DT = alloca double, align 8
  %B1 = alloca double, align 8
  %B2 = alloca double, align 8
  %mul1 = alloca double, align 8
  %mul2 = alloca double, align 8
  %a = alloca double, align 8
  %b = alloca double, align 8
  %c = alloca double, align 8
  %d = alloca double, align 8
  %e = alloca double, align 8
  %f = alloca double, align 8
  %dev_u = alloca double*, align 8
  %dev_v = alloca double*, align 8
  %dev_p = alloca double*, align 8
  %dev_q = alloca double*, align 8
  %t = alloca i32, align 4
  %agg.tmp = alloca %struct.dim3, align 4
  %agg.tmp47 = alloca %struct.dim3, align 4
  %agg.tmp.coerce = alloca { i64, i32 }, align 4
  %agg.tmp47.coerce = alloca { i64, i32 }, align 4
  %agg.tmp49 = alloca %struct.dim3, align 4
  %agg.tmp52 = alloca %struct.dim3, align 4
  %agg.tmp49.coerce = alloca { i64, i32 }, align 4
  %agg.tmp52.coerce = alloca { i64, i32 }, align 4
  store i32 %tsteps, i32* %tsteps.addr, align 4
  call void @llvm.dbg.declare(metadata i32* %tsteps.addr, metadata !912, metadata !DIExpression()), !dbg !913
  store i32 %n, i32* %n.addr, align 4
  call void @llvm.dbg.declare(metadata i32* %n.addr, metadata !914, metadata !DIExpression()), !dbg !915
  store double* %u, double** %u.addr, align 8
  call void @llvm.dbg.declare(metadata double** %u.addr, metadata !916, metadata !DIExpression()), !dbg !917
  store double* %v, double** %v.addr, align 8
  call void @llvm.dbg.declare(metadata double** %v.addr, metadata !918, metadata !DIExpression()), !dbg !919
  store double* %p, double** %p.addr, align 8
  call void @llvm.dbg.declare(metadata double** %p.addr, metadata !920, metadata !DIExpression()), !dbg !921
  store double* %q, double** %q.addr, align 8
  call void @llvm.dbg.declare(metadata double** %q.addr, metadata !922, metadata !DIExpression()), !dbg !923
  call void @llvm.dbg.declare(metadata i32* %threadsPerBlock, metadata !924, metadata !DIExpression()), !dbg !925
  store i32 256, i32* %threadsPerBlock, align 4, !dbg !925
  call void @llvm.dbg.declare(metadata double* %DX, metadata !926, metadata !DIExpression()), !dbg !927
  %0 = load i32, i32* %n.addr, align 4, !dbg !928
  %conv = sitofp i32 %0 to double, !dbg !928
  %div = fdiv double 1.000000e+00, %conv, !dbg !929
  store double %div, double* %DX, align 8, !dbg !927
  call void @llvm.dbg.declare(metadata double* %DY, metadata !930, metadata !DIExpression()), !dbg !931
  %1 = load i32, i32* %n.addr, align 4, !dbg !932
  %conv1 = sitofp i32 %1 to double, !dbg !932
  %div2 = fdiv double 1.000000e+00, %conv1, !dbg !933
  store double %div2, double* %DY, align 8, !dbg !931
  call void @llvm.dbg.declare(metadata double* %DT, metadata !934, metadata !DIExpression()), !dbg !935
  %2 = load i32, i32* %tsteps.addr, align 4, !dbg !936
  %conv3 = sitofp i32 %2 to double, !dbg !936
  %div4 = fdiv double 1.000000e+00, %conv3, !dbg !937
  store double %div4, double* %DT, align 8, !dbg !935
  call void @llvm.dbg.declare(metadata double* %B1, metadata !938, metadata !DIExpression()), !dbg !939
  store double 2.000000e+00, double* %B1, align 8, !dbg !939
  call void @llvm.dbg.declare(metadata double* %B2, metadata !940, metadata !DIExpression()), !dbg !941
  store double 1.000000e+00, double* %B2, align 8, !dbg !941
  call void @llvm.dbg.declare(metadata double* %mul1, metadata !942, metadata !DIExpression()), !dbg !943
  %3 = load double, double* %B1, align 8, !dbg !944
  %4 = load double, double* %DT, align 8, !dbg !945
  %mul = fmul contract double %3, %4, !dbg !946
  %5 = load double, double* %DX, align 8, !dbg !947
  %div5 = fdiv double %mul, %5, !dbg !948
  %6 = load double, double* %DX, align 8, !dbg !949
  %div6 = fdiv double %div5, %6, !dbg !950
  store double %div6, double* %mul1, align 8, !dbg !943
  call void @llvm.dbg.declare(metadata double* %mul2, metadata !951, metadata !DIExpression()), !dbg !952
  %7 = load double, double* %B2, align 8, !dbg !953
  %8 = load double, double* %DT, align 8, !dbg !954
  %mul7 = fmul contract double %7, %8, !dbg !955
  %9 = load double, double* %DY, align 8, !dbg !956
  %div8 = fdiv double %mul7, %9, !dbg !957
  %10 = load double, double* %DY, align 8, !dbg !958
  %div9 = fdiv double %div8, %10, !dbg !959
  store double %div9, double* %mul2, align 8, !dbg !952
  call void @llvm.dbg.declare(metadata double* %a, metadata !960, metadata !DIExpression()), !dbg !961
  %11 = load double, double* %mul1, align 8, !dbg !962
  %sub = fsub double -0.000000e+00, %11, !dbg !963
  %div10 = fdiv double %sub, 2.000000e+00, !dbg !964
  store double %div10, double* %a, align 8, !dbg !961
  call void @llvm.dbg.declare(metadata double* %b, metadata !965, metadata !DIExpression()), !dbg !966
  %12 = load double, double* %mul1, align 8, !dbg !967
  %add = fadd contract double 1.000000e+00, %12, !dbg !968
  store double %add, double* %b, align 8, !dbg !966
  call void @llvm.dbg.declare(metadata double* %c, metadata !969, metadata !DIExpression()), !dbg !970
  %13 = load double, double* %a, align 8, !dbg !971
  store double %13, double* %c, align 8, !dbg !970
  call void @llvm.dbg.declare(metadata double* %d, metadata !972, metadata !DIExpression()), !dbg !973
  %14 = load double, double* %mul2, align 8, !dbg !974
  %sub11 = fsub double -0.000000e+00, %14, !dbg !975
  %div12 = fdiv double %sub11, 2.000000e+00, !dbg !976
  store double %div12, double* %d, align 8, !dbg !973
  call void @llvm.dbg.declare(metadata double* %e, metadata !977, metadata !DIExpression()), !dbg !978
  %15 = load double, double* %mul2, align 8, !dbg !979
  %add13 = fadd contract double 1.000000e+00, %15, !dbg !980
  store double %add13, double* %e, align 8, !dbg !978
  call void @llvm.dbg.declare(metadata double* %f, metadata !981, metadata !DIExpression()), !dbg !982
  %16 = load double, double* %d, align 8, !dbg !983
  store double %16, double* %f, align 8, !dbg !982
  call void @llvm.dbg.declare(metadata double** %dev_u, metadata !984, metadata !DIExpression()), !dbg !985
  call void @llvm.dbg.declare(metadata double** %dev_v, metadata !986, metadata !DIExpression()), !dbg !987
  call void @llvm.dbg.declare(metadata double** %dev_p, metadata !988, metadata !DIExpression()), !dbg !989
  call void @llvm.dbg.declare(metadata double** %dev_q, metadata !990, metadata !DIExpression()), !dbg !991
  %17 = load i32, i32* %n.addr, align 4, !dbg !992
  %18 = load i32, i32* %n.addr, align 4, !dbg !993
  %mul14 = mul nsw i32 %17, %18, !dbg !994
  %conv15 = sext i32 %mul14 to i64, !dbg !992
  %mul16 = mul i64 %conv15, 8, !dbg !995
  %call = call i32 @_ZL10cudaMallocIdE9cudaErrorPPT_m(double** %dev_u, i64 %mul16), !dbg !996
  %19 = load i32, i32* %n.addr, align 4, !dbg !997
  %20 = load i32, i32* %n.addr, align 4, !dbg !998
  %mul17 = mul nsw i32 %19, %20, !dbg !999
  %conv18 = sext i32 %mul17 to i64, !dbg !997
  %mul19 = mul i64 %conv18, 8, !dbg !1000
  %call20 = call i32 @_ZL10cudaMallocIdE9cudaErrorPPT_m(double** %dev_v, i64 %mul19), !dbg !1001
  %21 = load i32, i32* %n.addr, align 4, !dbg !1002
  %22 = load i32, i32* %n.addr, align 4, !dbg !1003
  %mul21 = mul nsw i32 %21, %22, !dbg !1004
  %conv22 = sext i32 %mul21 to i64, !dbg !1002
  %mul23 = mul i64 %conv22, 8, !dbg !1005
  %call24 = call i32 @_ZL10cudaMallocIdE9cudaErrorPPT_m(double** %dev_p, i64 %mul23), !dbg !1006
  %23 = load i32, i32* %n.addr, align 4, !dbg !1007
  %24 = load i32, i32* %n.addr, align 4, !dbg !1008
  %mul25 = mul nsw i32 %23, %24, !dbg !1009
  %conv26 = sext i32 %mul25 to i64, !dbg !1007
  %mul27 = mul i64 %conv26, 8, !dbg !1010
  %call28 = call i32 @_ZL10cudaMallocIdE9cudaErrorPPT_m(double** %dev_q, i64 %mul27), !dbg !1011
  %25 = load double*, double** %dev_u, align 8, !dbg !1012
  %26 = bitcast double* %25 to i8*, !dbg !1012
  %27 = load double*, double** %u.addr, align 8, !dbg !1013
  %28 = bitcast double* %27 to i8*, !dbg !1013
  %29 = load i32, i32* %n.addr, align 4, !dbg !1014
  %30 = load i32, i32* %n.addr, align 4, !dbg !1015
  %mul29 = mul nsw i32 %29, %30, !dbg !1016
  %conv30 = sext i32 %mul29 to i64, !dbg !1014
  %mul31 = mul i64 %conv30, 8, !dbg !1017
  %call32 = call i32 @cudaMemcpy(i8* %26, i8* %28, i64 %mul31, i32 1), !dbg !1018
  %31 = load double*, double** %dev_v, align 8, !dbg !1019
  %32 = bitcast double* %31 to i8*, !dbg !1019
  %33 = load double*, double** %v.addr, align 8, !dbg !1020
  %34 = bitcast double* %33 to i8*, !dbg !1020
  %35 = load i32, i32* %n.addr, align 4, !dbg !1021
  %36 = load i32, i32* %n.addr, align 4, !dbg !1022
  %mul33 = mul nsw i32 %35, %36, !dbg !1023
  %conv34 = sext i32 %mul33 to i64, !dbg !1021
  %mul35 = mul i64 %conv34, 8, !dbg !1024
  %call36 = call i32 @cudaMemcpy(i8* %32, i8* %34, i64 %mul35, i32 1), !dbg !1025
  %37 = load double*, double** %dev_p, align 8, !dbg !1026
  %38 = bitcast double* %37 to i8*, !dbg !1026
  %39 = load double*, double** %p.addr, align 8, !dbg !1027
  %40 = bitcast double* %39 to i8*, !dbg !1027
  %41 = load i32, i32* %n.addr, align 4, !dbg !1028
  %42 = load i32, i32* %n.addr, align 4, !dbg !1029
  %mul37 = mul nsw i32 %41, %42, !dbg !1030
  %conv38 = sext i32 %mul37 to i64, !dbg !1028
  %mul39 = mul i64 %conv38, 8, !dbg !1031
  %call40 = call i32 @cudaMemcpy(i8* %38, i8* %40, i64 %mul39, i32 1), !dbg !1032
  %43 = load double*, double** %dev_q, align 8, !dbg !1033
  %44 = bitcast double* %43 to i8*, !dbg !1033
  %45 = load double*, double** %q.addr, align 8, !dbg !1034
  %46 = bitcast double* %45 to i8*, !dbg !1034
  %47 = load i32, i32* %n.addr, align 4, !dbg !1035
  %48 = load i32, i32* %n.addr, align 4, !dbg !1036
  %mul41 = mul nsw i32 %47, %48, !dbg !1037
  %conv42 = sext i32 %mul41 to i64, !dbg !1035
  %mul43 = mul i64 %conv42, 8, !dbg !1038
  %call44 = call i32 @cudaMemcpy(i8* %44, i8* %46, i64 %mul43, i32 1), !dbg !1039
  call void @llvm.dbg.declare(metadata i32* %t, metadata !1040, metadata !DIExpression()), !dbg !1042
  store i32 1, i32* %t, align 4, !dbg !1042
  br label %for.cond, !dbg !1043

for.cond:                                         ; preds = %for.inc, %entry
  %49 = load i32, i32* %t, align 4, !dbg !1044
  %50 = load i32, i32* %tsteps.addr, align 4, !dbg !1046
  %cmp = icmp sle i32 %49, %50, !dbg !1047
  br i1 %cmp, label %for.body, label %for.end, !dbg !1048

for.body:                                         ; preds = %for.cond
  %51 = load i32, i32* %n.addr, align 4, !dbg !1049
  %sub45 = sub nsw i32 %51, 2, !dbg !1051
  %52 = load i32, i32* %threadsPerBlock, align 4, !dbg !1052
  %call46 = call i32 @_ZL10num_blocksii(i32 %sub45, i32 %52), !dbg !1053
  call void @_ZN4dim3C2Ejjj(%struct.dim3* %agg.tmp, i32 %call46, i32 1, i32 1), !dbg !1053
  %53 = load i32, i32* %threadsPerBlock, align 4, !dbg !1054
  call void @_ZN4dim3C2Ejjj(%struct.dim3* %agg.tmp47, i32 %53, i32 1, i32 1), !dbg !1054
  %54 = bitcast { i64, i32 }* %agg.tmp.coerce to i8*, !dbg !1055
  %55 = bitcast %struct.dim3* %agg.tmp to i8*, !dbg !1055
  call void @llvm.memcpy.p0i8.p0i8.i64(i8* align 4 %54, i8* align 4 %55, i64 12, i1 false), !dbg !1055
  %56 = getelementptr inbounds { i64, i32 }, { i64, i32 }* %agg.tmp.coerce, i32 0, i32 0, !dbg !1055
  %57 = load i64, i64* %56, align 4, !dbg !1055
  %58 = getelementptr inbounds { i64, i32 }, { i64, i32 }* %agg.tmp.coerce, i32 0, i32 1, !dbg !1055
  %59 = load i32, i32* %58, align 4, !dbg !1055
  %60 = bitcast { i64, i32 }* %agg.tmp47.coerce to i8*, !dbg !1055
  %61 = bitcast %struct.dim3* %agg.tmp47 to i8*, !dbg !1055
  call void @llvm.memcpy.p0i8.p0i8.i64(i8* align 4 %60, i8* align 4 %61, i64 12, i1 false), !dbg !1055
  %62 = getelementptr inbounds { i64, i32 }, { i64, i32 }* %agg.tmp47.coerce, i32 0, i32 0, !dbg !1055
  %63 = load i64, i64* %62, align 4, !dbg !1055
  %64 = getelementptr inbounds { i64, i32 }, { i64, i32 }* %agg.tmp47.coerce, i32 0, i32 1, !dbg !1055
  %65 = load i32, i32* %64, align 4, !dbg !1055
  %call48 = call i32 @cudaConfigureCall(i64 %57, i32 %59, i64 %63, i32 %65, i64 0, %struct.CUstream_st* null), !dbg !1055
  %tobool = icmp ne i32 %call48, 0, !dbg !1055
  br i1 %tobool, label %kcall.end, label %kcall.configok, !dbg !1056

kcall.configok:                                   ; preds = %for.body
  %66 = load i32, i32* %tsteps.addr, align 4, !dbg !1057
  %67 = load i32, i32* %n.addr, align 4, !dbg !1058
  %68 = load double*, double** %dev_u, align 8, !dbg !1059
  %69 = load double*, double** %dev_v, align 8, !dbg !1060
  %70 = load double*, double** %dev_p, align 8, !dbg !1061
  %71 = load double*, double** %dev_q, align 8, !dbg !1062
  %72 = load double, double* %a, align 8, !dbg !1063
  %73 = load double, double* %b, align 8, !dbg !1064
  %74 = load double, double* %c, align 8, !dbg !1065
  %75 = load double, double* %d, align 8, !dbg !1066
  %76 = load double, double* %e, align 8, !dbg !1067
  %77 = load double, double* %f, align 8, !dbg !1068
  call void @_Z19kernel_column_sweepiiPdS_S_S_dddddd(i32 %66, i32 %67, double* %68, double* %69, double* %70, double* %71, double %72, double %73, double %74, double %75, double %76, double %77), !dbg !1056
  br label %kcall.end, !dbg !1056

kcall.end:                                        ; preds = %kcall.configok, %for.body
  %78 = load i32, i32* %n.addr, align 4, !dbg !1069
  %sub50 = sub nsw i32 %78, 2, !dbg !1070
  %79 = load i32, i32* %threadsPerBlock, align 4, !dbg !1071
  %call51 = call i32 @_ZL10num_blocksii(i32 %sub50, i32 %79), !dbg !1072
  call void @_ZN4dim3C2Ejjj(%struct.dim3* %agg.tmp49, i32 %call51, i32 1, i32 1), !dbg !1072
  %80 = load i32, i32* %threadsPerBlock, align 4, !dbg !1073
  call void @_ZN4dim3C2Ejjj(%struct.dim3* %agg.tmp52, i32 %80, i32 1, i32 1), !dbg !1073
  %81 = bitcast { i64, i32 }* %agg.tmp49.coerce to i8*, !dbg !1074
  %82 = bitcast %struct.dim3* %agg.tmp49 to i8*, !dbg !1074
  call void @llvm.memcpy.p0i8.p0i8.i64(i8* align 4 %81, i8* align 4 %82, i64 12, i1 false), !dbg !1074
  %83 = getelementptr inbounds { i64, i32 }, { i64, i32 }* %agg.tmp49.coerce, i32 0, i32 0, !dbg !1074
  %84 = load i64, i64* %83, align 4, !dbg !1074
  %85 = getelementptr inbounds { i64, i32 }, { i64, i32 }* %agg.tmp49.coerce, i32 0, i32 1, !dbg !1074
  %86 = load i32, i32* %85, align 4, !dbg !1074
  %87 = bitcast { i64, i32 }* %agg.tmp52.coerce to i8*, !dbg !1074
  %88 = bitcast %struct.dim3* %agg.tmp52 to i8*, !dbg !1074
  call void @llvm.memcpy.p0i8.p0i8.i64(i8* align 4 %87, i8* align 4 %88, i64 12, i1 false), !dbg !1074
  %89 = getelementptr inbounds { i64, i32 }, { i64, i32 }* %agg.tmp52.coerce, i32 0, i32 0, !dbg !1074
  %90 = load i64, i64* %89, align 4, !dbg !1074
  %91 = getelementptr inbounds { i64, i32 }, { i64, i32 }* %agg.tmp52.coerce, i32 0, i32 1, !dbg !1074
  %92 = load i32, i32* %91, align 4, !dbg !1074
  %call53 = call i32 @cudaConfigureCall(i64 %84, i32 %86, i64 %90, i32 %92, i64 0, %struct.CUstream_st* null), !dbg !1074
  %tobool54 = icmp ne i32 %call53, 0, !dbg !1074
  br i1 %tobool54, label %kcall.end56, label %kcall.configok55, !dbg !1075

kcall.configok55:                                 ; preds = %kcall.end
  %93 = load i32, i32* %tsteps.addr, align 4, !dbg !1076
  %94 = load i32, i32* %n.addr, align 4, !dbg !1077
  %95 = load double*, double** %dev_u, align 8, !dbg !1078
  %96 = load double*, double** %dev_v, align 8, !dbg !1079
  %97 = load double*, double** %dev_p, align 8, !dbg !1080
  %98 = load double*, double** %dev_q, align 8, !dbg !1081
  %99 = load double, double* %a, align 8, !dbg !1082
  %100 = load double, double* %b, align 8, !dbg !1083
  %101 = load double, double* %c, align 8, !dbg !1084
  %102 = load double, double* %d, align 8, !dbg !1085
  %103 = load double, double* %e, align 8, !dbg !1086
  %104 = load double, double* %f, align 8, !dbg !1087
  call void @_Z16kernel_row_sweepiiPdS_S_S_dddddd(i32 %93, i32 %94, double* %95, double* %96, double* %97, double* %98, double %99, double %100, double %101, double %102, double %103, double %104), !dbg !1075
  br label %kcall.end56, !dbg !1075

kcall.end56:                                      ; preds = %kcall.configok55, %kcall.end
  br label %for.inc, !dbg !1088

for.inc:                                          ; preds = %kcall.end56
  %105 = load i32, i32* %t, align 4, !dbg !1089
  %inc = add nsw i32 %105, 1, !dbg !1089
  store i32 %inc, i32* %t, align 4, !dbg !1089
  br label %for.cond, !dbg !1090, !llvm.loop !1091

for.end:                                          ; preds = %for.cond
  %106 = load double*, double** %u.addr, align 8, !dbg !1093
  %107 = bitcast double* %106 to i8*, !dbg !1093
  %108 = load double*, double** %dev_u, align 8, !dbg !1094
  %109 = bitcast double* %108 to i8*, !dbg !1094
  %110 = load i32, i32* %n.addr, align 4, !dbg !1095
  %111 = load i32, i32* %n.addr, align 4, !dbg !1096
  %mul57 = mul nsw i32 %110, %111, !dbg !1097
  %conv58 = sext i32 %mul57 to i64, !dbg !1095
  %mul59 = mul i64 %conv58, 8, !dbg !1098
  %call60 = call i32 @cudaMemcpy(i8* %107, i8* %109, i64 %mul59, i32 2), !dbg !1099
  %112 = load double*, double** %dev_u, align 8, !dbg !1100
  %113 = bitcast double* %112 to i8*, !dbg !1100
  %call61 = call i32 @cudaFree(i8* %113), !dbg !1101
  %114 = load double*, double** %dev_v, align 8, !dbg !1102
  %115 = bitcast double* %114 to i8*, !dbg !1102
  %call62 = call i32 @cudaFree(i8* %115), !dbg !1103
  %116 = load double*, double** %dev_p, align 8, !dbg !1104
  %117 = bitcast double* %116 to i8*, !dbg !1104
  %call63 = call i32 @cudaFree(i8* %117), !dbg !1105
  %118 = load double*, double** %dev_q, align 8, !dbg !1106
  %119 = bitcast double* %118 to i8*, !dbg !1106
  %call64 = call i32 @cudaFree(i8* %119), !dbg !1107
  ret void, !dbg !1108
}

; Function Attrs: noinline uwtable
define internal void @_ZL11print_arrayiPd(i32 %n, double* %u) #0 !dbg !1109 {
entry:
  %n.addr = alloca i32, align 4
  %u.addr = alloca double*, align 8
  %i = alloca i32, align 4
  %j = alloca i32, align 4
  store i32 %n, i32* %n.addr, align 4
  call void @llvm.dbg.declare(metadata i32* %n.addr, metadata !1112, metadata !DIExpression()), !dbg !1113
  store double* %u, double** %u.addr, align 8
  call void @llvm.dbg.declare(metadata double** %u.addr, metadata !1114, metadata !DIExpression()), !dbg !1115
  call void @llvm.dbg.declare(metadata i32* %i, metadata !1116, metadata !DIExpression()), !dbg !1117
  call void @llvm.dbg.declare(metadata i32* %j, metadata !1118, metadata !DIExpression()), !dbg !1119
  store i32 0, i32* %i, align 4, !dbg !1120
  br label %for.cond, !dbg !1122

for.cond:                                         ; preds = %for.inc8, %entry
  %0 = load i32, i32* %i, align 4, !dbg !1123
  %1 = load i32, i32* %n.addr, align 4, !dbg !1125
  %cmp = icmp slt i32 %0, %1, !dbg !1126
  br i1 %cmp, label %for.body, label %for.end10, !dbg !1127

for.body:                                         ; preds = %for.cond
  store i32 0, i32* %j, align 4, !dbg !1128
  br label %for.cond1, !dbg !1130

for.cond1:                                        ; preds = %for.inc, %for.body
  %2 = load i32, i32* %j, align 4, !dbg !1131
  %3 = load i32, i32* %n.addr, align 4, !dbg !1133
  %cmp2 = icmp slt i32 %2, %3, !dbg !1134
  br i1 %cmp2, label %for.body3, label %for.end, !dbg !1135

for.body3:                                        ; preds = %for.cond1
  %4 = load %struct._IO_FILE*, %struct._IO_FILE** @stderr, align 8, !dbg !1136
  %5 = load double*, double** %u.addr, align 8, !dbg !1138
  %6 = load i32, i32* %i, align 4, !dbg !1139
  %7 = load i32, i32* %n.addr, align 4, !dbg !1140
  %mul = mul nsw i32 %6, %7, !dbg !1141
  %8 = load i32, i32* %j, align 4, !dbg !1142
  %add = add nsw i32 %mul, %8, !dbg !1143
  %idxprom = sext i32 %add to i64, !dbg !1138
  %arrayidx = getelementptr inbounds double, double* %5, i64 %idxprom, !dbg !1138
  %9 = load double, double* %arrayidx, align 8, !dbg !1138
  %call = call i32 (%struct._IO_FILE*, i8*, ...) @fprintf(%struct._IO_FILE* %4, i8* getelementptr inbounds ([8 x i8], [8 x i8]* @.str, i64 0, i64 0), double %9), !dbg !1144
  %10 = load i32, i32* %i, align 4, !dbg !1145
  %11 = load i32, i32* %n.addr, align 4, !dbg !1147
  %mul4 = mul nsw i32 %10, %11, !dbg !1148
  %12 = load i32, i32* %j, align 4, !dbg !1149
  %add5 = add nsw i32 %mul4, %12, !dbg !1150
  %rem = srem i32 %add5, 20, !dbg !1151
  %cmp6 = icmp eq i32 %rem, 0, !dbg !1152
  br i1 %cmp6, label %if.then, label %if.end, !dbg !1153

if.then:                                          ; preds = %for.body3
  %13 = load %struct._IO_FILE*, %struct._IO_FILE** @stderr, align 8, !dbg !1154
  %call7 = call i32 (%struct._IO_FILE*, i8*, ...) @fprintf(%struct._IO_FILE* %13, i8* getelementptr inbounds ([2 x i8], [2 x i8]* @.str.1, i64 0, i64 0)), !dbg !1155
  br label %if.end, !dbg !1155

if.end:                                           ; preds = %if.then, %for.body3
  br label %for.inc, !dbg !1156

for.inc:                                          ; preds = %if.end
  %14 = load i32, i32* %j, align 4, !dbg !1157
  %inc = add nsw i32 %14, 1, !dbg !1157
  store i32 %inc, i32* %j, align 4, !dbg !1157
  br label %for.cond1, !dbg !1158, !llvm.loop !1159

for.end:                                          ; preds = %for.cond1
  br label %for.inc8, !dbg !1160

for.inc8:                                         ; preds = %for.end
  %15 = load i32, i32* %i, align 4, !dbg !1161
  %inc9 = add nsw i32 %15, 1, !dbg !1161
  store i32 %inc9, i32* %i, align 4, !dbg !1161
  br label %for.cond, !dbg !1162, !llvm.loop !1163

for.end10:                                        ; preds = %for.cond
  %16 = load %struct._IO_FILE*, %struct._IO_FILE** @stderr, align 8, !dbg !1165
  %call11 = call i32 (%struct._IO_FILE*, i8*, ...) @fprintf(%struct._IO_FILE* %16, i8* getelementptr inbounds ([2 x i8], [2 x i8]* @.str.1, i64 0, i64 0)), !dbg !1166
  ret void, !dbg !1167
}

; Function Attrs: nounwind
declare dso_local void @free(i8*) #4

; Function Attrs: noinline uwtable
define internal i32 @_ZL10cudaMallocIdE9cudaErrorPPT_m(double** %devPtr, i64 %size) #0 !dbg !1168 {
entry:
  %devPtr.addr = alloca double**, align 8
  %size.addr = alloca i64, align 8
  store double** %devPtr, double*** %devPtr.addr, align 8
  call void @llvm.dbg.declare(metadata double*** %devPtr.addr, metadata !1176, metadata !DIExpression()), !dbg !1177
  store i64 %size, i64* %size.addr, align 8
  call void @llvm.dbg.declare(metadata i64* %size.addr, metadata !1178, metadata !DIExpression()), !dbg !1179
  %0 = load double**, double*** %devPtr.addr, align 8, !dbg !1180
  %1 = bitcast double** %0 to i8*, !dbg !1180
  %2 = bitcast i8* %1 to i8**, !dbg !1181
  %3 = load i64, i64* %size.addr, align 8, !dbg !1182
  %call = call i32 @cudaMalloc(i8** %2, i64 %3), !dbg !1183
  ret i32 %call, !dbg !1184
}

declare dso_local i32 @cudaMemcpy(i8*, i8*, i64, i32) #6

declare dso_local i32 @cudaConfigureCall(i64, i32, i64, i32, i64, %struct.CUstream_st*) #6

; Function Attrs: noinline nounwind uwtable
define internal i32 @_ZL10num_blocksii(i32 %num, i32 %factor) #5 !dbg !1185 {
entry:
  %num.addr = alloca i32, align 4
  %factor.addr = alloca i32, align 4
  store i32 %num, i32* %num.addr, align 4
  call void @llvm.dbg.declare(metadata i32* %num.addr, metadata !1188, metadata !DIExpression()), !dbg !1189
  store i32 %factor, i32* %factor.addr, align 4
  call void @llvm.dbg.declare(metadata i32* %factor.addr, metadata !1190, metadata !DIExpression()), !dbg !1191
  %0 = load i32, i32* %num.addr, align 4, !dbg !1192
  %1 = load i32, i32* %factor.addr, align 4, !dbg !1193
  %add = add nsw i32 %0, %1, !dbg !1194
  %sub = sub nsw i32 %add, 1, !dbg !1195
  %2 = load i32, i32* %factor.addr, align 4, !dbg !1196
  %div = sdiv i32 %sub, %2, !dbg !1197
  ret i32 %div, !dbg !1198
}

; Function Attrs: noinline nounwind uwtable
define linkonce_odr dso_local void @_ZN4dim3C2Ejjj(%struct.dim3* %this, i32 %vx, i32 %vy, i32 %vz) unnamed_addr #5 comdat align 2 !dbg !1199 {
entry:
  %this.addr = alloca %struct.dim3*, align 8
  %vx.addr = alloca i32, align 4
  %vy.addr = alloca i32, align 4
  %vz.addr = alloca i32, align 4
  store %struct.dim3* %this, %struct.dim3** %this.addr, align 8
  call void @llvm.dbg.declare(metadata %struct.dim3** %this.addr, metadata !1222, metadata !DIExpression()), !dbg !1224
  store i32 %vx, i32* %vx.addr, align 4
  call void @llvm.dbg.declare(metadata i32* %vx.addr, metadata !1225, metadata !DIExpression()), !dbg !1226
  store i32 %vy, i32* %vy.addr, align 4
  call void @llvm.dbg.declare(metadata i32* %vy.addr, metadata !1227, metadata !DIExpression()), !dbg !1228
  store i32 %vz, i32* %vz.addr, align 4
  call void @llvm.dbg.declare(metadata i32* %vz.addr, metadata !1229, metadata !DIExpression()), !dbg !1230
  %this1 = load %struct.dim3*, %struct.dim3** %this.addr, align 8
  %x = getelementptr inbounds %struct.dim3, %struct.dim3* %this1, i32 0, i32 0, !dbg !1231
  %0 = load i32, i32* %vx.addr, align 4, !dbg !1232
  store i32 %0, i32* %x, align 4, !dbg !1231
  %y = getelementptr inbounds %struct.dim3, %struct.dim3* %this1, i32 0, i32 1, !dbg !1233
  %1 = load i32, i32* %vy.addr, align 4, !dbg !1234
  store i32 %1, i32* %y, align 4, !dbg !1233
  %z = getelementptr inbounds %struct.dim3, %struct.dim3* %this1, i32 0, i32 2, !dbg !1235
  %2 = load i32, i32* %vz.addr, align 4, !dbg !1236
  store i32 %2, i32* %z, align 4, !dbg !1235
  ret void, !dbg !1237
}

; Function Attrs: argmemonly nounwind
declare void @llvm.memcpy.p0i8.p0i8.i64(i8* nocapture writeonly, i8* nocapture readonly, i64, i1 immarg) #7

declare dso_local i32 @cudaFree(i8*) #6

declare dso_local i32 @cudaMalloc(i8**, i64) #6

declare dso_local i32 @fprintf(%struct._IO_FILE*, i8*, ...) #6

attributes #0 = { noinline uwtable "correctly-rounded-divide-sqrt-fp-math"="false" "disable-tail-calls"="false" "less-precise-fpmad"="false" "min-legal-vector-width"="0" "no-frame-pointer-elim"="true" "no-frame-pointer-elim-non-leaf" "no-infs-fp-math"="false" "no-jump-tables"="false" "no-nans-fp-math"="false" "no-signed-zeros-fp-math"="false" "no-trapping-math"="false" "stack-protector-buffer-size"="8" "target-cpu"="x86-64" "target-features"="+cx8,+fxsr,+mmx,+sse,+sse2,+x87" "unsafe-fp-math"="false" "use-soft-float"="false" }
attributes #1 = { nounwind readnone speculatable }
attributes #2 = { noinline norecurse uwtable "correctly-rounded-divide-sqrt-fp-math"="false" "disable-tail-calls"="false" "less-precise-fpmad"="false" "min-legal-vector-width"="0" "no-frame-pointer-elim"="true" "no-frame-pointer-elim-non-leaf" "no-infs-fp-math"="false" "no-jump-tables"="false" "no-nans-fp-math"="false" "no-signed-zeros-fp-math"="false" "no-trapping-math"="false" "stack-protector-buffer-size"="8" "target-cpu"="x86-64" "target-features"="+cx8,+fxsr,+mmx,+sse,+sse2,+x87" "unsafe-fp-math"="false" "use-soft-float"="false" }
attributes #3 = { nounwind readonly "correctly-rounded-divide-sqrt-fp-math"="false" "disable-tail-calls"="false" "less-precise-fpmad"="false" "no-frame-pointer-elim"="true" "no-frame-pointer-elim-non-leaf" "no-infs-fp-math"="false" "no-nans-fp-math"="false" "no-signed-zeros-fp-math"="false" "no-trapping-math"="false" "stack-protector-buffer-size"="8" "target-cpu"="x86-64" "target-features"="+cx8,+fxsr,+mmx,+sse,+sse2,+x87" "unsafe-fp-math"="false" "use-soft-float"="false" }
attributes #4 = { nounwind "correctly-rounded-divide-sqrt-fp-math"="false" "disable-tail-calls"="false" "less-precise-fpmad"="false" "no-frame-pointer-elim"="true" "no-frame-pointer-elim-non-leaf" "no-infs-fp-math"="false" "no-nans-fp-math"="false" "no-signed-zeros-fp-math"="false" "no-trapping-math"="false" "stack-protector-buffer-size"="8" "target-cpu"="x86-64" "target-features"="+cx8,+fxsr,+mmx,+sse,+sse2,+x87" "unsafe-fp-math"="false" "use-soft-float"="false" }
attributes #5 = { noinline nounwind uwtable "correctly-rounded-divide-sqrt-fp-math"="false" "disable-tail-calls"="false" "less-precise-fpmad"="false" "min-legal-vector-width"="0" "no-frame-pointer-elim"="true" "no-frame-pointer-elim-non-leaf" "no-infs-fp-math"="false" "no-jump-tables"="false" "no-nans-fp-math"="false" "no-signed-zeros-fp-math"="false" "no-trapping-math"="false" "stack-protector-buffer-size"="8" "target-cpu"="x86-64" "target-features"="+cx8,+fxsr,+mmx,+sse,+sse2,+x87" "unsafe-fp-math"="false" "use-soft-float"="false" }
attributes #6 = { "correctly-rounded-divide-sqrt-fp-math"="false" "disable-tail-calls"="false" "less-precise-fpmad"="false" "no-frame-pointer-elim"="true" "no-frame-pointer-elim-non-leaf" "no-infs-fp-math"="false" "no-nans-fp-math"="false" "no-signed-zeros-fp-math"="false" "no-trapping-math"="false" "stack-protector-buffer-size"="8" "target-cpu"="x86-64" "target-features"="+cx8,+fxsr,+mmx,+sse,+sse2,+x87" "unsafe-fp-math"="false" "use-soft-float"="false" }
attributes #7 = { argmemonly nounwind }
attributes #8 = { nounwind readonly }
attributes #9 = { nounwind }

!llvm.module.flags = !{!0, !1, !2, !3}
!llvm.dbg.cu = !{!4}
!llvm.ident = !{!691}

!0 = !{i32 2, !"SDK Version", [2 x i32] [i32 7, i32 0]}
!1 = !{i32 2, !"Dwarf Version", i32 4}
!2 = !{i32 2, !"Debug Info Version", i32 3}
!3 = !{i32 1, !"wchar_size", i32 4}
!4 = distinct !DICompileUnit(language: DW_LANG_C_plus_plus, file: !5, producer: "clang version 9.0.0 (git@github.com:SusanTan/llvm-project.git a1efa594106d738d0b74c9e4e2b9b779eb8b7d25)", isOptimized: false, runtimeVersion: 0, emissionKind: FullDebug, enums: !6, retainedTypes: !98, imports: !103, nameTableKind: None)
!5 = !DIFile(filename: "adi.cu", directory: "/u/NAS_SCRATCH/yc0769/xstack-benchmark/polybench-cuda/adi")
!6 = !{!7, !16}
!7 = !DICompositeType(tag: DW_TAG_enumeration_type, name: "cudaMemcpyKind", file: !8, line: 796, baseType: !9, size: 32, elements: !10, identifier: "_ZTS14cudaMemcpyKind")
!8 = !DIFile(filename: "/usr/local/cuda/include/driver_types.h", directory: "")
!9 = !DIBasicType(name: "unsigned int", size: 32, encoding: DW_ATE_unsigned)
!10 = !{!11, !12, !13, !14, !15}
!11 = !DIEnumerator(name: "cudaMemcpyHostToHost", value: 0, isUnsigned: true)
!12 = !DIEnumerator(name: "cudaMemcpyHostToDevice", value: 1, isUnsigned: true)
!13 = !DIEnumerator(name: "cudaMemcpyDeviceToHost", value: 2, isUnsigned: true)
!14 = !DIEnumerator(name: "cudaMemcpyDeviceToDevice", value: 3, isUnsigned: true)
!15 = !DIEnumerator(name: "cudaMemcpyDefault", value: 4, isUnsigned: true)
!16 = !DICompositeType(tag: DW_TAG_enumeration_type, name: "cudaError", file: !8, line: 150, baseType: !9, size: 32, elements: !17, identifier: "_ZTS9cudaError")
!17 = !{!18, !19, !20, !21, !22, !23, !24, !25, !26, !27, !28, !29, !30, !31, !32, !33, !34, !35, !36, !37, !38, !39, !40, !41, !42, !43, !44, !45, !46, !47, !48, !49, !50, !51, !52, !53, !54, !55, !56, !57, !58, !59, !60, !61, !62, !63, !64, !65, !66, !67, !68, !69, !70, !71, !72, !73, !74, !75, !76, !77, !78, !79, !80, !81, !82, !83, !84, !85, !86, !87, !88, !89, !90, !91, !92, !93, !94, !95, !96, !97}
!18 = !DIEnumerator(name: "cudaSuccess", value: 0, isUnsigned: true)
!19 = !DIEnumerator(name: "cudaErrorMissingConfiguration", value: 1, isUnsigned: true)
!20 = !DIEnumerator(name: "cudaErrorMemoryAllocation", value: 2, isUnsigned: true)
!21 = !DIEnumerator(name: "cudaErrorInitializationError", value: 3, isUnsigned: true)
!22 = !DIEnumerator(name: "cudaErrorLaunchFailure", value: 4, isUnsigned: true)
!23 = !DIEnumerator(name: "cudaErrorPriorLaunchFailure", value: 5, isUnsigned: true)
!24 = !DIEnumerator(name: "cudaErrorLaunchTimeout", value: 6, isUnsigned: true)
!25 = !DIEnumerator(name: "cudaErrorLaunchOutOfResources", value: 7, isUnsigned: true)
!26 = !DIEnumerator(name: "cudaErrorInvalidDeviceFunction", value: 8, isUnsigned: true)
!27 = !DIEnumerator(name: "cudaErrorInvalidConfiguration", value: 9, isUnsigned: true)
!28 = !DIEnumerator(name: "cudaErrorInvalidDevice", value: 10, isUnsigned: true)
!29 = !DIEnumerator(name: "cudaErrorInvalidValue", value: 11, isUnsigned: true)
!30 = !DIEnumerator(name: "cudaErrorInvalidPitchValue", value: 12, isUnsigned: true)
!31 = !DIEnumerator(name: "cudaErrorInvalidSymbol", value: 13, isUnsigned: true)
!32 = !DIEnumerator(name: "cudaErrorMapBufferObjectFailed", value: 14, isUnsigned: true)
!33 = !DIEnumerator(name: "cudaErrorUnmapBufferObjectFailed", value: 15, isUnsigned: true)
!34 = !DIEnumerator(name: "cudaErrorInvalidHostPointer", value: 16, isUnsigned: true)
!35 = !DIEnumerator(name: "cudaErrorInvalidDevicePointer", value: 17, isUnsigned: true)
!36 = !DIEnumerator(name: "cudaErrorInvalidTexture", value: 18, isUnsigned: true)
!37 = !DIEnumerator(name: "cudaErrorInvalidTextureBinding", value: 19, isUnsigned: true)
!38 = !DIEnumerator(name: "cudaErrorInvalidChannelDescriptor", value: 20, isUnsigned: true)
!39 = !DIEnumerator(name: "cudaErrorInvalidMemcpyDirection", value: 21, isUnsigned: true)
!40 = !DIEnumerator(name: "cudaErrorAddressOfConstant", value: 22, isUnsigned: true)
!41 = !DIEnumerator(name: "cudaErrorTextureFetchFailed", value: 23, isUnsigned: true)
!42 = !DIEnumerator(name: "cudaErrorTextureNotBound", value: 24, isUnsigned: true)
!43 = !DIEnumerator(name: "cudaErrorSynchronizationError", value: 25, isUnsigned: true)
!44 = !DIEnumerator(name: "cudaErrorInvalidFilterSetting", value: 26, isUnsigned: true)
!45 = !DIEnumerator(name: "cudaErrorInvalidNormSetting", value: 27, isUnsigned: true)
!46 = !DIEnumerator(name: "cudaErrorMixedDeviceExecution", value: 28, isUnsigned: true)
!47 = !DIEnumerator(name: "cudaErrorCudartUnloading", value: 29, isUnsigned: true)
!48 = !DIEnumerator(name: "cudaErrorUnknown", value: 30, isUnsigned: true)
!49 = !DIEnumerator(name: "cudaErrorNotYetImplemented", value: 31, isUnsigned: true)
!50 = !DIEnumerator(name: "cudaErrorMemoryValueTooLarge", value: 32, isUnsigned: true)
!51 = !DIEnumerator(name: "cudaErrorInvalidResourceHandle", value: 33, isUnsigned: true)
!52 = !DIEnumerator(name: "cudaErrorNotReady", value: 34, isUnsigned: true)
!53 = !DIEnumerator(name: "cudaErrorInsufficientDriver", value: 35, isUnsigned: true)
!54 = !DIEnumerator(name: "cudaErrorSetOnActiveProcess", value: 36, isUnsigned: true)
!55 = !DIEnumerator(name: "cudaErrorInvalidSurface", value: 37, isUnsigned: true)
!56 = !DIEnumerator(name: "cudaErrorNoDevice", value: 38, isUnsigned: true)
!57 = !DIEnumerator(name: "cudaErrorECCUncorrectable", value: 39, isUnsigned: true)
!58 = !DIEnumerator(name: "cudaErrorSharedObjectSymbolNotFound", value: 40, isUnsigned: true)
!59 = !DIEnumerator(name: "cudaErrorSharedObjectInitFailed", value: 41, isUnsigned: true)
!60 = !DIEnumerator(name: "cudaErrorUnsupportedLimit", value: 42, isUnsigned: true)
!61 = !DIEnumerator(name: "cudaErrorDuplicateVariableName", value: 43, isUnsigned: true)
!62 = !DIEnumerator(name: "cudaErrorDuplicateTextureName", value: 44, isUnsigned: true)
!63 = !DIEnumerator(name: "cudaErrorDuplicateSurfaceName", value: 45, isUnsigned: true)
!64 = !DIEnumerator(name: "cudaErrorDevicesUnavailable", value: 46, isUnsigned: true)
!65 = !DIEnumerator(name: "cudaErrorInvalidKernelImage", value: 47, isUnsigned: true)
!66 = !DIEnumerator(name: "cudaErrorNoKernelImageForDevice", value: 48, isUnsigned: true)
!67 = !DIEnumerator(name: "cudaErrorIncompatibleDriverContext", value: 49, isUnsigned: true)
!68 = !DIEnumerator(name: "cudaErrorPeerAccessAlreadyEnabled", value: 50, isUnsigned: true)
!69 = !DIEnumerator(name: "cudaErrorPeerAccessNotEnabled", value: 51, isUnsigned: true)
!70 = !DIEnumerator(name: "cudaErrorDeviceAlreadyInUse", value: 54, isUnsigned: true)
!71 = !DIEnumerator(name: "cudaErrorProfilerDisabled", value: 55, isUnsigned: true)
!72 = !DIEnumerator(name: "cudaErrorProfilerNotInitialized", value: 56, isUnsigned: true)
!73 = !DIEnumerator(name: "cudaErrorProfilerAlreadyStarted", value: 57, isUnsigned: true)
!74 = !DIEnumerator(name: "cudaErrorProfilerAlreadyStopped", value: 58, isUnsigned: true)
!75 = !DIEnumerator(name: "cudaErrorAssert", value: 59, isUnsigned: true)
!76 = !DIEnumerator(name: "cudaErrorTooManyPeers", value: 60, isUnsigned: true)
!77 = !DIEnumerator(name: "cudaErrorHostMemoryAlreadyRegistered", value: 61, isUnsigned: true)
!78 = !DIEnumerator(name: "cudaErrorHostMemoryNotRegistered", value: 62, isUnsigned: true)
!79 = !DIEnumerator(name: "cudaErrorOperatingSystem", value: 63, isUnsigned: true)
!80 = !DIEnumerator(name: "cudaErrorPeerAccessUnsupported", value: 64, isUnsigned: true)
!81 = !DIEnumerator(name: "cudaErrorLaunchMaxDepthExceeded", value: 65, isUnsigned: true)
!82 = !DIEnumerator(name: "cudaErrorLaunchFileScopedTex", value: 66, isUnsigned: true)
!83 = !DIEnumerator(name: "cudaErrorLaunchFileScopedSurf", value: 67, isUnsigned: true)
!84 = !DIEnumerator(name: "cudaErrorSyncDepthExceeded", value: 68, isUnsigned: true)
!85 = !DIEnumerator(name: "cudaErrorLaunchPendingCountExceeded", value: 69, isUnsigned: true)
!86 = !DIEnumerator(name: "cudaErrorNotPermitted", value: 70, isUnsigned: true)
!87 = !DIEnumerator(name: "cudaErrorNotSupported", value: 71, isUnsigned: true)
!88 = !DIEnumerator(name: "cudaErrorHardwareStackError", value: 72, isUnsigned: true)
!89 = !DIEnumerator(name: "cudaErrorIllegalInstruction", value: 73, isUnsigned: true)
!90 = !DIEnumerator(name: "cudaErrorMisalignedAddress", value: 74, isUnsigned: true)
!91 = !DIEnumerator(name: "cudaErrorInvalidAddressSpace", value: 75, isUnsigned: true)
!92 = !DIEnumerator(name: "cudaErrorInvalidPc", value: 76, isUnsigned: true)
!93 = !DIEnumerator(name: "cudaErrorIllegalAddress", value: 77, isUnsigned: true)
!94 = !DIEnumerator(name: "cudaErrorInvalidPtx", value: 78, isUnsigned: true)
!95 = !DIEnumerator(name: "cudaErrorInvalidGraphicsContext", value: 79, isUnsigned: true)
!96 = !DIEnumerator(name: "cudaErrorStartupFailure", value: 127, isUnsigned: true)
!97 = !DIEnumerator(name: "cudaErrorApiFailureBase", value: 10000, isUnsigned: true)
!98 = !{!99, !101, !100, !102}
!99 = !DIDerivedType(tag: DW_TAG_pointer_type, baseType: !100, size: 64)
!100 = !DIBasicType(name: "double", size: 64, encoding: DW_ATE_float)
!101 = !DIDerivedType(tag: DW_TAG_pointer_type, baseType: null, size: 64)
!102 = !DIDerivedType(tag: DW_TAG_pointer_type, baseType: !101, size: 64)
!103 = !{!104, !111, !116, !118, !120, !122, !124, !128, !130, !132, !134, !136, !138, !140, !142, !144, !146, !148, !150, !152, !154, !156, !160, !162, !164, !166, !170, !175, !177, !179, !184, !188, !190, !192, !194, !196, !198, !200, !202, !204, !209, !213, !215, !220, !224, !226, !228, !230, !232, !234, !238, !240, !242, !247, !254, !258, !260, !262, !264, !266, !270, !272, !274, !278, !280, !282, !284, !286, !288, !290, !292, !294, !296, !300, !306, !308, !310, !314, !316, !318, !320, !322, !324, !326, !328, !332, !336, !338, !340, !344, !346, !348, !350, !352, !354, !356, !360, !366, !370, !375, !377, !381, !385, !398, !402, !406, !410, !414, !419, !421, !425, !429, !433, !441, !445, !449, !453, !457, !461, !467, !471, !475, !477, !485, !489, !496, !498, !500, !504, !508, !512, !517, !521, !526, !527, !528, !529, !531, !532, !533, !534, !535, !536, !537, !539, !540, !541, !542, !543, !547, !548, !549, !550, !551, !552, !553, !554, !555, !556, !557, !558, !559, !560, !561, !562, !563, !564, !565, !566, !567, !568, !569, !570, !571, !575, !577, !579, !581, !583, !585, !587, !589, !592, !594, !596, !598, !600, !602, !604, !606, !608, !610, !612, !614, !616, !618, !620, !622, !624, !626, !628, !630, !632, !634, !636, !638, !640, !642, !644, !646, !648, !650, !652, !654, !656, !658, !660, !662, !664, !666, !668, !670, !672, !674, !676, !678, !680, !682, !684, !686}
!104 = !DIImportedEntity(tag: DW_TAG_imported_declaration, scope: !105, entity: !106, file: !107, line: 223)
!105 = !DINamespace(name: "std", scope: null)
!106 = !DISubprogram(name: "abs", linkageName: "_ZL3absi", scope: !107, file: !107, line: 53, type: !108, flags: DIFlagPrototyped, spFlags: DISPFlagLocalToUnit)
!107 = !DIFile(filename: "xstack/llvm-install-debug/lib/clang/9.0.0/include/__clang_cuda_math_forward_declares.h", directory: "/u/NAS_SCRATCH/yc0769")
!108 = !DISubroutineType(types: !109)
!109 = !{!110, !110}
!110 = !DIBasicType(name: "int", size: 32, encoding: DW_ATE_signed)
!111 = !DIImportedEntity(tag: DW_TAG_imported_declaration, scope: !105, entity: !112, file: !107, line: 224)
!112 = !DISubprogram(name: "acos", linkageName: "_ZL4acosf", scope: !107, file: !107, line: 55, type: !113, flags: DIFlagPrototyped, spFlags: DISPFlagLocalToUnit)
!113 = !DISubroutineType(types: !114)
!114 = !{!115, !115}
!115 = !DIBasicType(name: "float", size: 32, encoding: DW_ATE_float)
!116 = !DIImportedEntity(tag: DW_TAG_imported_declaration, scope: !105, entity: !117, file: !107, line: 225)
!117 = !DISubprogram(name: "acosh", linkageName: "_ZL5acoshf", scope: !107, file: !107, line: 57, type: !113, flags: DIFlagPrototyped, spFlags: DISPFlagLocalToUnit)
!118 = !DIImportedEntity(tag: DW_TAG_imported_declaration, scope: !105, entity: !119, file: !107, line: 226)
!119 = !DISubprogram(name: "asin", linkageName: "_ZL4asinf", scope: !107, file: !107, line: 59, type: !113, flags: DIFlagPrototyped, spFlags: DISPFlagLocalToUnit)
!120 = !DIImportedEntity(tag: DW_TAG_imported_declaration, scope: !105, entity: !121, file: !107, line: 227)
!121 = !DISubprogram(name: "asinh", linkageName: "_ZL5asinhf", scope: !107, file: !107, line: 61, type: !113, flags: DIFlagPrototyped, spFlags: DISPFlagLocalToUnit)
!122 = !DIImportedEntity(tag: DW_TAG_imported_declaration, scope: !105, entity: !123, file: !107, line: 228)
!123 = !DISubprogram(name: "atan", linkageName: "_ZL4atanf", scope: !107, file: !107, line: 65, type: !113, flags: DIFlagPrototyped, spFlags: DISPFlagLocalToUnit)
!124 = !DIImportedEntity(tag: DW_TAG_imported_declaration, scope: !105, entity: !125, file: !107, line: 229)
!125 = !DISubprogram(name: "atan2", linkageName: "_ZL5atan2ff", scope: !107, file: !107, line: 63, type: !126, flags: DIFlagPrototyped, spFlags: DISPFlagLocalToUnit)
!126 = !DISubroutineType(types: !127)
!127 = !{!115, !115, !115}
!128 = !DIImportedEntity(tag: DW_TAG_imported_declaration, scope: !105, entity: !129, file: !107, line: 230)
!129 = !DISubprogram(name: "atanh", linkageName: "_ZL5atanhf", scope: !107, file: !107, line: 67, type: !113, flags: DIFlagPrototyped, spFlags: DISPFlagLocalToUnit)
!130 = !DIImportedEntity(tag: DW_TAG_imported_declaration, scope: !105, entity: !131, file: !107, line: 231)
!131 = !DISubprogram(name: "cbrt", linkageName: "_ZL4cbrtf", scope: !107, file: !107, line: 69, type: !113, flags: DIFlagPrototyped, spFlags: DISPFlagLocalToUnit)
!132 = !DIImportedEntity(tag: DW_TAG_imported_declaration, scope: !105, entity: !133, file: !107, line: 232)
!133 = !DISubprogram(name: "ceil", linkageName: "_ZL4ceilf", scope: !107, file: !107, line: 71, type: !113, flags: DIFlagPrototyped, spFlags: DISPFlagLocalToUnit)
!134 = !DIImportedEntity(tag: DW_TAG_imported_declaration, scope: !105, entity: !135, file: !107, line: 233)
!135 = !DISubprogram(name: "copysign", linkageName: "_ZL8copysignff", scope: !107, file: !107, line: 73, type: !126, flags: DIFlagPrototyped, spFlags: DISPFlagLocalToUnit)
!136 = !DIImportedEntity(tag: DW_TAG_imported_declaration, scope: !105, entity: !137, file: !107, line: 234)
!137 = !DISubprogram(name: "cos", linkageName: "_ZL3cosf", scope: !107, file: !107, line: 75, type: !113, flags: DIFlagPrototyped, spFlags: DISPFlagLocalToUnit)
!138 = !DIImportedEntity(tag: DW_TAG_imported_declaration, scope: !105, entity: !139, file: !107, line: 235)
!139 = !DISubprogram(name: "cosh", linkageName: "_ZL4coshf", scope: !107, file: !107, line: 77, type: !113, flags: DIFlagPrototyped, spFlags: DISPFlagLocalToUnit)
!140 = !DIImportedEntity(tag: DW_TAG_imported_declaration, scope: !105, entity: !141, file: !107, line: 236)
!141 = !DISubprogram(name: "erf", linkageName: "_ZL3erff", scope: !107, file: !107, line: 81, type: !113, flags: DIFlagPrototyped, spFlags: DISPFlagLocalToUnit)
!142 = !DIImportedEntity(tag: DW_TAG_imported_declaration, scope: !105, entity: !143, file: !107, line: 237)
!143 = !DISubprogram(name: "erfc", linkageName: "_ZL4erfcf", scope: !107, file: !107, line: 79, type: !113, flags: DIFlagPrototyped, spFlags: DISPFlagLocalToUnit)
!144 = !DIImportedEntity(tag: DW_TAG_imported_declaration, scope: !105, entity: !145, file: !107, line: 238)
!145 = !DISubprogram(name: "exp", linkageName: "_ZL3expf", scope: !107, file: !107, line: 85, type: !113, flags: DIFlagPrototyped, spFlags: DISPFlagLocalToUnit)
!146 = !DIImportedEntity(tag: DW_TAG_imported_declaration, scope: !105, entity: !147, file: !107, line: 239)
!147 = !DISubprogram(name: "exp2", linkageName: "_ZL4exp2f", scope: !107, file: !107, line: 83, type: !113, flags: DIFlagPrototyped, spFlags: DISPFlagLocalToUnit)
!148 = !DIImportedEntity(tag: DW_TAG_imported_declaration, scope: !105, entity: !149, file: !107, line: 240)
!149 = !DISubprogram(name: "expm1", linkageName: "_ZL5expm1f", scope: !107, file: !107, line: 87, type: !113, flags: DIFlagPrototyped, spFlags: DISPFlagLocalToUnit)
!150 = !DIImportedEntity(tag: DW_TAG_imported_declaration, scope: !105, entity: !151, file: !107, line: 241)
!151 = !DISubprogram(name: "fabs", linkageName: "_ZL4fabsf", scope: !107, file: !107, line: 89, type: !113, flags: DIFlagPrototyped, spFlags: DISPFlagLocalToUnit)
!152 = !DIImportedEntity(tag: DW_TAG_imported_declaration, scope: !105, entity: !153, file: !107, line: 242)
!153 = !DISubprogram(name: "fdim", linkageName: "_ZL4fdimff", scope: !107, file: !107, line: 91, type: !126, flags: DIFlagPrototyped, spFlags: DISPFlagLocalToUnit)
!154 = !DIImportedEntity(tag: DW_TAG_imported_declaration, scope: !105, entity: !155, file: !107, line: 243)
!155 = !DISubprogram(name: "floor", linkageName: "_ZL5floorf", scope: !107, file: !107, line: 93, type: !113, flags: DIFlagPrototyped, spFlags: DISPFlagLocalToUnit)
!156 = !DIImportedEntity(tag: DW_TAG_imported_declaration, scope: !105, entity: !157, file: !107, line: 244)
!157 = !DISubprogram(name: "fma", linkageName: "_ZL3fmafff", scope: !107, file: !107, line: 95, type: !158, flags: DIFlagPrototyped, spFlags: DISPFlagLocalToUnit)
!158 = !DISubroutineType(types: !159)
!159 = !{!115, !115, !115, !115}
!160 = !DIImportedEntity(tag: DW_TAG_imported_declaration, scope: !105, entity: !161, file: !107, line: 245)
!161 = !DISubprogram(name: "fmax", linkageName: "_ZL4fmaxff", scope: !107, file: !107, line: 97, type: !126, flags: DIFlagPrototyped, spFlags: DISPFlagLocalToUnit)
!162 = !DIImportedEntity(tag: DW_TAG_imported_declaration, scope: !105, entity: !163, file: !107, line: 246)
!163 = !DISubprogram(name: "fmin", linkageName: "_ZL4fminff", scope: !107, file: !107, line: 99, type: !126, flags: DIFlagPrototyped, spFlags: DISPFlagLocalToUnit)
!164 = !DIImportedEntity(tag: DW_TAG_imported_declaration, scope: !105, entity: !165, file: !107, line: 247)
!165 = !DISubprogram(name: "fmod", linkageName: "_ZL4fmodff", scope: !107, file: !107, line: 101, type: !126, flags: DIFlagPrototyped, spFlags: DISPFlagLocalToUnit)
!166 = !DIImportedEntity(tag: DW_TAG_imported_declaration, scope: !105, entity: !167, file: !107, line: 248)
!167 = !DISubprogram(name: "fpclassify", linkageName: "_ZL10fpclassifyf", scope: !107, file: !107, line: 103, type: !168, flags: DIFlagPrototyped, spFlags: DISPFlagLocalToUnit)
!168 = !DISubroutineType(types: !169)
!169 = !{!110, !115}
!170 = !DIImportedEntity(tag: DW_TAG_imported_declaration, scope: !105, entity: !171, file: !107, line: 249)
!171 = !DISubprogram(name: "frexp", linkageName: "_ZL5frexpfPi", scope: !107, file: !107, line: 105, type: !172, flags: DIFlagPrototyped, spFlags: DISPFlagLocalToUnit)
!172 = !DISubroutineType(types: !173)
!173 = !{!115, !115, !174}
!174 = !DIDerivedType(tag: DW_TAG_pointer_type, baseType: !110, size: 64)
!175 = !DIImportedEntity(tag: DW_TAG_imported_declaration, scope: !105, entity: !176, file: !107, line: 250)
!176 = !DISubprogram(name: "hypot", linkageName: "_ZL5hypotff", scope: !107, file: !107, line: 107, type: !126, flags: DIFlagPrototyped, spFlags: DISPFlagLocalToUnit)
!177 = !DIImportedEntity(tag: DW_TAG_imported_declaration, scope: !105, entity: !178, file: !107, line: 251)
!178 = !DISubprogram(name: "ilogb", linkageName: "_ZL5ilogbf", scope: !107, file: !107, line: 109, type: !168, flags: DIFlagPrototyped, spFlags: DISPFlagLocalToUnit)
!179 = !DIImportedEntity(tag: DW_TAG_imported_declaration, scope: !105, entity: !180, file: !107, line: 252)
!180 = !DISubprogram(name: "isfinite", linkageName: "_ZL8isfinitef", scope: !107, file: !107, line: 114, type: !181, flags: DIFlagPrototyped, spFlags: DISPFlagLocalToUnit)
!181 = !DISubroutineType(types: !182)
!182 = !{!183, !115}
!183 = !DIBasicType(name: "bool", size: 8, encoding: DW_ATE_boolean)
!184 = !DIImportedEntity(tag: DW_TAG_imported_declaration, scope: !105, entity: !185, file: !107, line: 253)
!185 = !DISubprogram(name: "isgreater", linkageName: "_ZL9isgreaterff", scope: !107, file: !107, line: 118, type: !186, flags: DIFlagPrototyped, spFlags: DISPFlagLocalToUnit)
!186 = !DISubroutineType(types: !187)
!187 = !{!183, !115, !115}
!188 = !DIImportedEntity(tag: DW_TAG_imported_declaration, scope: !105, entity: !189, file: !107, line: 254)
!189 = !DISubprogram(name: "isgreaterequal", linkageName: "_ZL14isgreaterequalff", scope: !107, file: !107, line: 117, type: !186, flags: DIFlagPrototyped, spFlags: DISPFlagLocalToUnit)
!190 = !DIImportedEntity(tag: DW_TAG_imported_declaration, scope: !105, entity: !191, file: !107, line: 255)
!191 = !DISubprogram(name: "isinf", linkageName: "_ZL5isinff", scope: !107, file: !107, line: 123, type: !181, flags: DIFlagPrototyped, spFlags: DISPFlagLocalToUnit)
!192 = !DIImportedEntity(tag: DW_TAG_imported_declaration, scope: !105, entity: !193, file: !107, line: 256)
!193 = !DISubprogram(name: "isless", linkageName: "_ZL6islessff", scope: !107, file: !107, line: 127, type: !186, flags: DIFlagPrototyped, spFlags: DISPFlagLocalToUnit)
!194 = !DIImportedEntity(tag: DW_TAG_imported_declaration, scope: !105, entity: !195, file: !107, line: 257)
!195 = !DISubprogram(name: "islessequal", linkageName: "_ZL11islessequalff", scope: !107, file: !107, line: 126, type: !186, flags: DIFlagPrototyped, spFlags: DISPFlagLocalToUnit)
!196 = !DIImportedEntity(tag: DW_TAG_imported_declaration, scope: !105, entity: !197, file: !107, line: 258)
!197 = !DISubprogram(name: "islessgreater", linkageName: "_ZL13islessgreaterff", scope: !107, file: !107, line: 129, type: !186, flags: DIFlagPrototyped, spFlags: DISPFlagLocalToUnit)
!198 = !DIImportedEntity(tag: DW_TAG_imported_declaration, scope: !105, entity: !199, file: !107, line: 259)
!199 = !DISubprogram(name: "isnan", linkageName: "_ZL5isnanf", scope: !107, file: !107, line: 134, type: !181, flags: DIFlagPrototyped, spFlags: DISPFlagLocalToUnit)
!200 = !DIImportedEntity(tag: DW_TAG_imported_declaration, scope: !105, entity: !201, file: !107, line: 260)
!201 = !DISubprogram(name: "isnormal", linkageName: "_ZL8isnormalf", scope: !107, file: !107, line: 136, type: !181, flags: DIFlagPrototyped, spFlags: DISPFlagLocalToUnit)
!202 = !DIImportedEntity(tag: DW_TAG_imported_declaration, scope: !105, entity: !203, file: !107, line: 261)
!203 = !DISubprogram(name: "isunordered", linkageName: "_ZL11isunorderedff", scope: !107, file: !107, line: 138, type: !186, flags: DIFlagPrototyped, spFlags: DISPFlagLocalToUnit)
!204 = !DIImportedEntity(tag: DW_TAG_imported_declaration, scope: !105, entity: !205, file: !107, line: 262)
!205 = !DISubprogram(name: "labs", linkageName: "_ZL4labsl", scope: !107, file: !107, line: 139, type: !206, flags: DIFlagPrototyped, spFlags: DISPFlagLocalToUnit)
!206 = !DISubroutineType(types: !207)
!207 = !{!208, !208}
!208 = !DIBasicType(name: "long int", size: 64, encoding: DW_ATE_signed)
!209 = !DIImportedEntity(tag: DW_TAG_imported_declaration, scope: !105, entity: !210, file: !107, line: 263)
!210 = !DISubprogram(name: "ldexp", linkageName: "_ZL5ldexpfi", scope: !107, file: !107, line: 141, type: !211, flags: DIFlagPrototyped, spFlags: DISPFlagLocalToUnit)
!211 = !DISubroutineType(types: !212)
!212 = !{!115, !115, !110}
!213 = !DIImportedEntity(tag: DW_TAG_imported_declaration, scope: !105, entity: !214, file: !107, line: 264)
!214 = !DISubprogram(name: "lgamma", linkageName: "_ZL6lgammaf", scope: !107, file: !107, line: 143, type: !113, flags: DIFlagPrototyped, spFlags: DISPFlagLocalToUnit)
!215 = !DIImportedEntity(tag: DW_TAG_imported_declaration, scope: !105, entity: !216, file: !107, line: 265)
!216 = !DISubprogram(name: "llabs", linkageName: "_ZL5llabsx", scope: !107, file: !107, line: 144, type: !217, flags: DIFlagPrototyped, spFlags: DISPFlagLocalToUnit)
!217 = !DISubroutineType(types: !218)
!218 = !{!219, !219}
!219 = !DIBasicType(name: "long long int", size: 64, encoding: DW_ATE_signed)
!220 = !DIImportedEntity(tag: DW_TAG_imported_declaration, scope: !105, entity: !221, file: !107, line: 266)
!221 = !DISubprogram(name: "llrint", linkageName: "_ZL6llrintf", scope: !107, file: !107, line: 146, type: !222, flags: DIFlagPrototyped, spFlags: DISPFlagLocalToUnit)
!222 = !DISubroutineType(types: !223)
!223 = !{!219, !115}
!224 = !DIImportedEntity(tag: DW_TAG_imported_declaration, scope: !105, entity: !225, file: !107, line: 267)
!225 = !DISubprogram(name: "log", linkageName: "_ZL3logf", scope: !107, file: !107, line: 159, type: !113, flags: DIFlagPrototyped, spFlags: DISPFlagLocalToUnit)
!226 = !DIImportedEntity(tag: DW_TAG_imported_declaration, scope: !105, entity: !227, file: !107, line: 268)
!227 = !DISubprogram(name: "log10", linkageName: "_ZL5log10f", scope: !107, file: !107, line: 148, type: !113, flags: DIFlagPrototyped, spFlags: DISPFlagLocalToUnit)
!228 = !DIImportedEntity(tag: DW_TAG_imported_declaration, scope: !105, entity: !229, file: !107, line: 269)
!229 = !DISubprogram(name: "log1p", linkageName: "_ZL5log1pf", scope: !107, file: !107, line: 150, type: !113, flags: DIFlagPrototyped, spFlags: DISPFlagLocalToUnit)
!230 = !DIImportedEntity(tag: DW_TAG_imported_declaration, scope: !105, entity: !231, file: !107, line: 270)
!231 = !DISubprogram(name: "log2", linkageName: "_ZL4log2f", scope: !107, file: !107, line: 152, type: !113, flags: DIFlagPrototyped, spFlags: DISPFlagLocalToUnit)
!232 = !DIImportedEntity(tag: DW_TAG_imported_declaration, scope: !105, entity: !233, file: !107, line: 271)
!233 = !DISubprogram(name: "logb", linkageName: "_ZL4logbf", scope: !107, file: !107, line: 154, type: !113, flags: DIFlagPrototyped, spFlags: DISPFlagLocalToUnit)
!234 = !DIImportedEntity(tag: DW_TAG_imported_declaration, scope: !105, entity: !235, file: !107, line: 272)
!235 = !DISubprogram(name: "lrint", linkageName: "_ZL5lrintf", scope: !107, file: !107, line: 161, type: !236, flags: DIFlagPrototyped, spFlags: DISPFlagLocalToUnit)
!236 = !DISubroutineType(types: !237)
!237 = !{!208, !115}
!238 = !DIImportedEntity(tag: DW_TAG_imported_declaration, scope: !105, entity: !239, file: !107, line: 273)
!239 = !DISubprogram(name: "lround", linkageName: "_ZL6lroundf", scope: !107, file: !107, line: 163, type: !236, flags: DIFlagPrototyped, spFlags: DISPFlagLocalToUnit)
!240 = !DIImportedEntity(tag: DW_TAG_imported_declaration, scope: !105, entity: !241, file: !107, line: 274)
!241 = !DISubprogram(name: "llround", linkageName: "_ZL7llroundf", scope: !107, file: !107, line: 164, type: !222, flags: DIFlagPrototyped, spFlags: DISPFlagLocalToUnit)
!242 = !DIImportedEntity(tag: DW_TAG_imported_declaration, scope: !105, entity: !243, file: !107, line: 275)
!243 = !DISubprogram(name: "modf", linkageName: "_ZL4modffPf", scope: !107, file: !107, line: 166, type: !244, flags: DIFlagPrototyped, spFlags: DISPFlagLocalToUnit)
!244 = !DISubroutineType(types: !245)
!245 = !{!115, !115, !246}
!246 = !DIDerivedType(tag: DW_TAG_pointer_type, baseType: !115, size: 64)
!247 = !DIImportedEntity(tag: DW_TAG_imported_declaration, scope: !105, entity: !248, file: !107, line: 276)
!248 = !DISubprogram(name: "nan", linkageName: "_ZL3nanPKc", scope: !107, file: !107, line: 167, type: !249, flags: DIFlagPrototyped, spFlags: DISPFlagLocalToUnit)
!249 = !DISubroutineType(types: !250)
!250 = !{!100, !251}
!251 = !DIDerivedType(tag: DW_TAG_pointer_type, baseType: !252, size: 64)
!252 = !DIDerivedType(tag: DW_TAG_const_type, baseType: !253)
!253 = !DIBasicType(name: "char", size: 8, encoding: DW_ATE_signed_char)
!254 = !DIImportedEntity(tag: DW_TAG_imported_declaration, scope: !105, entity: !255, file: !107, line: 277)
!255 = !DISubprogram(name: "nanf", linkageName: "_ZL4nanfPKc", scope: !107, file: !107, line: 168, type: !256, flags: DIFlagPrototyped, spFlags: DISPFlagLocalToUnit)
!256 = !DISubroutineType(types: !257)
!257 = !{!115, !251}
!258 = !DIImportedEntity(tag: DW_TAG_imported_declaration, scope: !105, entity: !259, file: !107, line: 278)
!259 = !DISubprogram(name: "nearbyint", linkageName: "_ZL9nearbyintf", scope: !107, file: !107, line: 170, type: !113, flags: DIFlagPrototyped, spFlags: DISPFlagLocalToUnit)
!260 = !DIImportedEntity(tag: DW_TAG_imported_declaration, scope: !105, entity: !261, file: !107, line: 279)
!261 = !DISubprogram(name: "nextafter", linkageName: "_ZL9nextafterff", scope: !107, file: !107, line: 172, type: !126, flags: DIFlagPrototyped, spFlags: DISPFlagLocalToUnit)
!262 = !DIImportedEntity(tag: DW_TAG_imported_declaration, scope: !105, entity: !263, file: !107, line: 280)
!263 = !DISubprogram(name: "pow", linkageName: "_ZL3powfi", scope: !107, file: !107, line: 176, type: !211, flags: DIFlagPrototyped, spFlags: DISPFlagLocalToUnit)
!264 = !DIImportedEntity(tag: DW_TAG_imported_declaration, scope: !105, entity: !265, file: !107, line: 281)
!265 = !DISubprogram(name: "remainder", linkageName: "_ZL9remainderff", scope: !107, file: !107, line: 178, type: !126, flags: DIFlagPrototyped, spFlags: DISPFlagLocalToUnit)
!266 = !DIImportedEntity(tag: DW_TAG_imported_declaration, scope: !105, entity: !267, file: !107, line: 282)
!267 = !DISubprogram(name: "remquo", linkageName: "_ZL6remquoffPi", scope: !107, file: !107, line: 180, type: !268, flags: DIFlagPrototyped, spFlags: DISPFlagLocalToUnit)
!268 = !DISubroutineType(types: !269)
!269 = !{!115, !115, !115, !174}
!270 = !DIImportedEntity(tag: DW_TAG_imported_declaration, scope: !105, entity: !271, file: !107, line: 283)
!271 = !DISubprogram(name: "rint", linkageName: "_ZL4rintf", scope: !107, file: !107, line: 182, type: !113, flags: DIFlagPrototyped, spFlags: DISPFlagLocalToUnit)
!272 = !DIImportedEntity(tag: DW_TAG_imported_declaration, scope: !105, entity: !273, file: !107, line: 284)
!273 = !DISubprogram(name: "round", linkageName: "_ZL5roundf", scope: !107, file: !107, line: 184, type: !113, flags: DIFlagPrototyped, spFlags: DISPFlagLocalToUnit)
!274 = !DIImportedEntity(tag: DW_TAG_imported_declaration, scope: !105, entity: !275, file: !107, line: 285)
!275 = !DISubprogram(name: "scalbln", linkageName: "_ZL7scalblnfl", scope: !107, file: !107, line: 186, type: !276, flags: DIFlagPrototyped, spFlags: DISPFlagLocalToUnit)
!276 = !DISubroutineType(types: !277)
!277 = !{!115, !115, !208}
!278 = !DIImportedEntity(tag: DW_TAG_imported_declaration, scope: !105, entity: !279, file: !107, line: 286)
!279 = !DISubprogram(name: "scalbn", linkageName: "_ZL6scalbnfi", scope: !107, file: !107, line: 188, type: !211, flags: DIFlagPrototyped, spFlags: DISPFlagLocalToUnit)
!280 = !DIImportedEntity(tag: DW_TAG_imported_declaration, scope: !105, entity: !281, file: !107, line: 287)
!281 = !DISubprogram(name: "signbit", linkageName: "_ZL7signbitf", scope: !107, file: !107, line: 190, type: !181, flags: DIFlagPrototyped, spFlags: DISPFlagLocalToUnit)
!282 = !DIImportedEntity(tag: DW_TAG_imported_declaration, scope: !105, entity: !283, file: !107, line: 288)
!283 = !DISubprogram(name: "sin", linkageName: "_ZL3sinf", scope: !107, file: !107, line: 192, type: !113, flags: DIFlagPrototyped, spFlags: DISPFlagLocalToUnit)
!284 = !DIImportedEntity(tag: DW_TAG_imported_declaration, scope: !105, entity: !285, file: !107, line: 289)
!285 = !DISubprogram(name: "sinh", linkageName: "_ZL4sinhf", scope: !107, file: !107, line: 194, type: !113, flags: DIFlagPrototyped, spFlags: DISPFlagLocalToUnit)
!286 = !DIImportedEntity(tag: DW_TAG_imported_declaration, scope: !105, entity: !287, file: !107, line: 290)
!287 = !DISubprogram(name: "sqrt", linkageName: "_ZL4sqrtf", scope: !107, file: !107, line: 196, type: !113, flags: DIFlagPrototyped, spFlags: DISPFlagLocalToUnit)
!288 = !DIImportedEntity(tag: DW_TAG_imported_declaration, scope: !105, entity: !289, file: !107, line: 291)
!289 = !DISubprogram(name: "tan", linkageName: "_ZL3tanf", scope: !107, file: !107, line: 198, type: !113, flags: DIFlagPrototyped, spFlags: DISPFlagLocalToUnit)
!290 = !DIImportedEntity(tag: DW_TAG_imported_declaration, scope: !105, entity: !291, file: !107, line: 292)
!291 = !DISubprogram(name: "tanh", linkageName: "_ZL4tanhf", scope: !107, file: !107, line: 200, type: !113, flags: DIFlagPrototyped, spFlags: DISPFlagLocalToUnit)
!292 = !DIImportedEntity(tag: DW_TAG_imported_declaration, scope: !105, entity: !293, file: !107, line: 293)
!293 = !DISubprogram(name: "tgamma", linkageName: "_ZL6tgammaf", scope: !107, file: !107, line: 202, type: !113, flags: DIFlagPrototyped, spFlags: DISPFlagLocalToUnit)
!294 = !DIImportedEntity(tag: DW_TAG_imported_declaration, scope: !105, entity: !295, file: !107, line: 294)
!295 = !DISubprogram(name: "trunc", linkageName: "_ZL5truncf", scope: !107, file: !107, line: 204, type: !113, flags: DIFlagPrototyped, spFlags: DISPFlagLocalToUnit)
!296 = !DIImportedEntity(tag: DW_TAG_imported_declaration, scope: !105, entity: !297, file: !299, line: 52)
!297 = !DISubprogram(name: "abs", scope: !298, file: !298, line: 840, type: !108, flags: DIFlagPrototyped, spFlags: 0)
!298 = !DIFile(filename: "/usr/include/stdlib.h", directory: "")
!299 = !DIFile(filename: "/usr/lib/gcc/x86_64-linux-gnu/9/../../../../include/c++/9/bits/std_abs.h", directory: "")
!300 = !DIImportedEntity(tag: DW_TAG_imported_declaration, scope: !105, entity: !301, file: !305, line: 83)
!301 = !DISubprogram(name: "acos", scope: !302, file: !302, line: 53, type: !303, flags: DIFlagPrototyped, spFlags: 0)
!302 = !DIFile(filename: "/usr/include/x86_64-linux-gnu/bits/mathcalls.h", directory: "")
!303 = !DISubroutineType(types: !304)
!304 = !{!100, !100}
!305 = !DIFile(filename: "/usr/lib/gcc/x86_64-linux-gnu/9/../../../../include/c++/9/cmath", directory: "")
!306 = !DIImportedEntity(tag: DW_TAG_imported_declaration, scope: !105, entity: !307, file: !305, line: 102)
!307 = !DISubprogram(name: "asin", scope: !302, file: !302, line: 55, type: !303, flags: DIFlagPrototyped, spFlags: 0)
!308 = !DIImportedEntity(tag: DW_TAG_imported_declaration, scope: !105, entity: !309, file: !305, line: 121)
!309 = !DISubprogram(name: "atan", scope: !302, file: !302, line: 57, type: !303, flags: DIFlagPrototyped, spFlags: 0)
!310 = !DIImportedEntity(tag: DW_TAG_imported_declaration, scope: !105, entity: !311, file: !305, line: 140)
!311 = !DISubprogram(name: "atan2", scope: !302, file: !302, line: 59, type: !312, flags: DIFlagPrototyped, spFlags: 0)
!312 = !DISubroutineType(types: !313)
!313 = !{!100, !100, !100}
!314 = !DIImportedEntity(tag: DW_TAG_imported_declaration, scope: !105, entity: !315, file: !305, line: 161)
!315 = !DISubprogram(name: "ceil", scope: !302, file: !302, line: 159, type: !303, flags: DIFlagPrototyped, spFlags: 0)
!316 = !DIImportedEntity(tag: DW_TAG_imported_declaration, scope: !105, entity: !317, file: !305, line: 180)
!317 = !DISubprogram(name: "cos", scope: !302, file: !302, line: 62, type: !303, flags: DIFlagPrototyped, spFlags: 0)
!318 = !DIImportedEntity(tag: DW_TAG_imported_declaration, scope: !105, entity: !319, file: !305, line: 199)
!319 = !DISubprogram(name: "cosh", scope: !302, file: !302, line: 71, type: !303, flags: DIFlagPrototyped, spFlags: 0)
!320 = !DIImportedEntity(tag: DW_TAG_imported_declaration, scope: !105, entity: !321, file: !305, line: 218)
!321 = !DISubprogram(name: "exp", scope: !302, file: !302, line: 95, type: !303, flags: DIFlagPrototyped, spFlags: 0)
!322 = !DIImportedEntity(tag: DW_TAG_imported_declaration, scope: !105, entity: !323, file: !305, line: 237)
!323 = !DISubprogram(name: "fabs", scope: !302, file: !302, line: 162, type: !303, flags: DIFlagPrototyped, spFlags: 0)
!324 = !DIImportedEntity(tag: DW_TAG_imported_declaration, scope: !105, entity: !325, file: !305, line: 256)
!325 = !DISubprogram(name: "floor", scope: !302, file: !302, line: 165, type: !303, flags: DIFlagPrototyped, spFlags: 0)
!326 = !DIImportedEntity(tag: DW_TAG_imported_declaration, scope: !105, entity: !327, file: !305, line: 275)
!327 = !DISubprogram(name: "fmod", scope: !302, file: !302, line: 168, type: !312, flags: DIFlagPrototyped, spFlags: 0)
!328 = !DIImportedEntity(tag: DW_TAG_imported_declaration, scope: !105, entity: !329, file: !305, line: 296)
!329 = !DISubprogram(name: "frexp", scope: !302, file: !302, line: 98, type: !330, flags: DIFlagPrototyped, spFlags: 0)
!330 = !DISubroutineType(types: !331)
!331 = !{!100, !100, !174}
!332 = !DIImportedEntity(tag: DW_TAG_imported_declaration, scope: !105, entity: !333, file: !305, line: 315)
!333 = !DISubprogram(name: "ldexp", scope: !302, file: !302, line: 101, type: !334, flags: DIFlagPrototyped, spFlags: 0)
!334 = !DISubroutineType(types: !335)
!335 = !{!100, !100, !110}
!336 = !DIImportedEntity(tag: DW_TAG_imported_declaration, scope: !105, entity: !337, file: !305, line: 334)
!337 = !DISubprogram(name: "log", scope: !302, file: !302, line: 104, type: !303, flags: DIFlagPrototyped, spFlags: 0)
!338 = !DIImportedEntity(tag: DW_TAG_imported_declaration, scope: !105, entity: !339, file: !305, line: 353)
!339 = !DISubprogram(name: "log10", scope: !302, file: !302, line: 107, type: !303, flags: DIFlagPrototyped, spFlags: 0)
!340 = !DIImportedEntity(tag: DW_TAG_imported_declaration, scope: !105, entity: !341, file: !305, line: 372)
!341 = !DISubprogram(name: "modf", scope: !302, file: !302, line: 110, type: !342, flags: DIFlagPrototyped, spFlags: 0)
!342 = !DISubroutineType(types: !343)
!343 = !{!100, !100, !99}
!344 = !DIImportedEntity(tag: DW_TAG_imported_declaration, scope: !105, entity: !345, file: !305, line: 384)
!345 = !DISubprogram(name: "pow", scope: !302, file: !302, line: 140, type: !312, flags: DIFlagPrototyped, spFlags: 0)
!346 = !DIImportedEntity(tag: DW_TAG_imported_declaration, scope: !105, entity: !347, file: !305, line: 421)
!347 = !DISubprogram(name: "sin", scope: !302, file: !302, line: 64, type: !303, flags: DIFlagPrototyped, spFlags: 0)
!348 = !DIImportedEntity(tag: DW_TAG_imported_declaration, scope: !105, entity: !349, file: !305, line: 440)
!349 = !DISubprogram(name: "sinh", scope: !302, file: !302, line: 73, type: !303, flags: DIFlagPrototyped, spFlags: 0)
!350 = !DIImportedEntity(tag: DW_TAG_imported_declaration, scope: !105, entity: !351, file: !305, line: 459)
!351 = !DISubprogram(name: "sqrt", scope: !302, file: !302, line: 143, type: !303, flags: DIFlagPrototyped, spFlags: 0)
!352 = !DIImportedEntity(tag: DW_TAG_imported_declaration, scope: !105, entity: !353, file: !305, line: 478)
!353 = !DISubprogram(name: "tan", scope: !302, file: !302, line: 66, type: !303, flags: DIFlagPrototyped, spFlags: 0)
!354 = !DIImportedEntity(tag: DW_TAG_imported_declaration, scope: !105, entity: !355, file: !305, line: 497)
!355 = !DISubprogram(name: "tanh", scope: !302, file: !302, line: 75, type: !303, flags: DIFlagPrototyped, spFlags: 0)
!356 = !DIImportedEntity(tag: DW_TAG_imported_declaration, scope: !105, entity: !357, file: !359, line: 127)
!357 = !DIDerivedType(tag: DW_TAG_typedef, name: "div_t", file: !298, line: 62, baseType: !358)
!358 = !DICompositeType(tag: DW_TAG_structure_type, file: !298, line: 58, flags: DIFlagFwdDecl, identifier: "_ZTS5div_t")
!359 = !DIFile(filename: "/usr/lib/gcc/x86_64-linux-gnu/9/../../../../include/c++/9/cstdlib", directory: "")
!360 = !DIImportedEntity(tag: DW_TAG_imported_declaration, scope: !105, entity: !361, file: !359, line: 128)
!361 = !DIDerivedType(tag: DW_TAG_typedef, name: "ldiv_t", file: !298, line: 70, baseType: !362)
!362 = distinct !DICompositeType(tag: DW_TAG_structure_type, file: !298, line: 66, size: 128, flags: DIFlagTypePassByValue, elements: !363, identifier: "_ZTS6ldiv_t")
!363 = !{!364, !365}
!364 = !DIDerivedType(tag: DW_TAG_member, name: "quot", scope: !362, file: !298, line: 68, baseType: !208, size: 64)
!365 = !DIDerivedType(tag: DW_TAG_member, name: "rem", scope: !362, file: !298, line: 69, baseType: !208, size: 64, offset: 64)
!366 = !DIImportedEntity(tag: DW_TAG_imported_declaration, scope: !105, entity: !367, file: !359, line: 130)
!367 = !DISubprogram(name: "abort", scope: !298, file: !298, line: 591, type: !368, flags: DIFlagPrototyped | DIFlagNoReturn, spFlags: 0)
!368 = !DISubroutineType(types: !369)
!369 = !{null}
!370 = !DIImportedEntity(tag: DW_TAG_imported_declaration, scope: !105, entity: !371, file: !359, line: 134)
!371 = !DISubprogram(name: "atexit", scope: !298, file: !298, line: 595, type: !372, flags: DIFlagPrototyped, spFlags: 0)
!372 = !DISubroutineType(types: !373)
!373 = !{!110, !374}
!374 = !DIDerivedType(tag: DW_TAG_pointer_type, baseType: !368, size: 64)
!375 = !DIImportedEntity(tag: DW_TAG_imported_declaration, scope: !105, entity: !376, file: !359, line: 140)
!376 = !DISubprogram(name: "atof", scope: !298, file: !298, line: 101, type: !249, flags: DIFlagPrototyped, spFlags: 0)
!377 = !DIImportedEntity(tag: DW_TAG_imported_declaration, scope: !105, entity: !378, file: !359, line: 141)
!378 = !DISubprogram(name: "atoi", scope: !298, file: !298, line: 104, type: !379, flags: DIFlagPrototyped, spFlags: 0)
!379 = !DISubroutineType(types: !380)
!380 = !{!110, !251}
!381 = !DIImportedEntity(tag: DW_TAG_imported_declaration, scope: !105, entity: !382, file: !359, line: 142)
!382 = !DISubprogram(name: "atol", scope: !298, file: !298, line: 107, type: !383, flags: DIFlagPrototyped, spFlags: 0)
!383 = !DISubroutineType(types: !384)
!384 = !{!208, !251}
!385 = !DIImportedEntity(tag: DW_TAG_imported_declaration, scope: !105, entity: !386, file: !359, line: 143)
!386 = !DISubprogram(name: "bsearch", scope: !298, file: !298, line: 820, type: !387, flags: DIFlagPrototyped, spFlags: 0)
!387 = !DISubroutineType(types: !388)
!388 = !{!101, !389, !389, !391, !391, !394}
!389 = !DIDerivedType(tag: DW_TAG_pointer_type, baseType: !390, size: 64)
!390 = !DIDerivedType(tag: DW_TAG_const_type, baseType: null)
!391 = !DIDerivedType(tag: DW_TAG_typedef, name: "size_t", file: !392, line: 46, baseType: !393)
!392 = !DIFile(filename: "xstack/llvm-install-debug/lib/clang/9.0.0/include/stddef.h", directory: "/u/NAS_SCRATCH/yc0769")
!393 = !DIBasicType(name: "long unsigned int", size: 64, encoding: DW_ATE_unsigned)
!394 = !DIDerivedType(tag: DW_TAG_typedef, name: "__compar_fn_t", file: !298, line: 808, baseType: !395)
!395 = !DIDerivedType(tag: DW_TAG_pointer_type, baseType: !396, size: 64)
!396 = !DISubroutineType(types: !397)
!397 = !{!110, !389, !389}
!398 = !DIImportedEntity(tag: DW_TAG_imported_declaration, scope: !105, entity: !399, file: !359, line: 144)
!399 = !DISubprogram(name: "calloc", scope: !298, file: !298, line: 542, type: !400, flags: DIFlagPrototyped, spFlags: 0)
!400 = !DISubroutineType(types: !401)
!401 = !{!101, !391, !391}
!402 = !DIImportedEntity(tag: DW_TAG_imported_declaration, scope: !105, entity: !403, file: !359, line: 145)
!403 = !DISubprogram(name: "div", scope: !298, file: !298, line: 852, type: !404, flags: DIFlagPrototyped, spFlags: 0)
!404 = !DISubroutineType(types: !405)
!405 = !{!357, !110, !110}
!406 = !DIImportedEntity(tag: DW_TAG_imported_declaration, scope: !105, entity: !407, file: !359, line: 146)
!407 = !DISubprogram(name: "exit", scope: !298, file: !298, line: 617, type: !408, flags: DIFlagPrototyped | DIFlagNoReturn, spFlags: 0)
!408 = !DISubroutineType(types: !409)
!409 = !{null, !110}
!410 = !DIImportedEntity(tag: DW_TAG_imported_declaration, scope: !105, entity: !411, file: !359, line: 147)
!411 = !DISubprogram(name: "free", scope: !298, file: !298, line: 565, type: !412, flags: DIFlagPrototyped, spFlags: 0)
!412 = !DISubroutineType(types: !413)
!413 = !{null, !101}
!414 = !DIImportedEntity(tag: DW_TAG_imported_declaration, scope: !105, entity: !415, file: !359, line: 148)
!415 = !DISubprogram(name: "getenv", scope: !298, file: !298, line: 634, type: !416, flags: DIFlagPrototyped, spFlags: 0)
!416 = !DISubroutineType(types: !417)
!417 = !{!418, !251}
!418 = !DIDerivedType(tag: DW_TAG_pointer_type, baseType: !253, size: 64)
!419 = !DIImportedEntity(tag: DW_TAG_imported_declaration, scope: !105, entity: !420, file: !359, line: 149)
!420 = !DISubprogram(name: "labs", scope: !298, file: !298, line: 841, type: !206, flags: DIFlagPrototyped, spFlags: 0)
!421 = !DIImportedEntity(tag: DW_TAG_imported_declaration, scope: !105, entity: !422, file: !359, line: 150)
!422 = !DISubprogram(name: "ldiv", scope: !298, file: !298, line: 854, type: !423, flags: DIFlagPrototyped, spFlags: 0)
!423 = !DISubroutineType(types: !424)
!424 = !{!361, !208, !208}
!425 = !DIImportedEntity(tag: DW_TAG_imported_declaration, scope: !105, entity: !426, file: !359, line: 151)
!426 = !DISubprogram(name: "malloc", scope: !298, file: !298, line: 539, type: !427, flags: DIFlagPrototyped, spFlags: 0)
!427 = !DISubroutineType(types: !428)
!428 = !{!101, !391}
!429 = !DIImportedEntity(tag: DW_TAG_imported_declaration, scope: !105, entity: !430, file: !359, line: 153)
!430 = !DISubprogram(name: "mblen", scope: !298, file: !298, line: 922, type: !431, flags: DIFlagPrototyped, spFlags: 0)
!431 = !DISubroutineType(types: !432)
!432 = !{!110, !251, !391}
!433 = !DIImportedEntity(tag: DW_TAG_imported_declaration, scope: !105, entity: !434, file: !359, line: 154)
!434 = !DISubprogram(name: "mbstowcs", scope: !298, file: !298, line: 933, type: !435, flags: DIFlagPrototyped, spFlags: 0)
!435 = !DISubroutineType(types: !436)
!436 = !{!391, !437, !440, !391}
!437 = !DIDerivedType(tag: DW_TAG_restrict_type, baseType: !438)
!438 = !DIDerivedType(tag: DW_TAG_pointer_type, baseType: !439, size: 64)
!439 = !DIBasicType(name: "wchar_t", size: 32, encoding: DW_ATE_signed)
!440 = !DIDerivedType(tag: DW_TAG_restrict_type, baseType: !251)
!441 = !DIImportedEntity(tag: DW_TAG_imported_declaration, scope: !105, entity: !442, file: !359, line: 155)
!442 = !DISubprogram(name: "mbtowc", scope: !298, file: !298, line: 925, type: !443, flags: DIFlagPrototyped, spFlags: 0)
!443 = !DISubroutineType(types: !444)
!444 = !{!110, !437, !440, !391}
!445 = !DIImportedEntity(tag: DW_TAG_imported_declaration, scope: !105, entity: !446, file: !359, line: 157)
!446 = !DISubprogram(name: "qsort", scope: !298, file: !298, line: 830, type: !447, flags: DIFlagPrototyped, spFlags: 0)
!447 = !DISubroutineType(types: !448)
!448 = !{null, !101, !391, !391, !394}
!449 = !DIImportedEntity(tag: DW_TAG_imported_declaration, scope: !105, entity: !450, file: !359, line: 163)
!450 = !DISubprogram(name: "rand", scope: !298, file: !298, line: 453, type: !451, flags: DIFlagPrototyped, spFlags: 0)
!451 = !DISubroutineType(types: !452)
!452 = !{!110}
!453 = !DIImportedEntity(tag: DW_TAG_imported_declaration, scope: !105, entity: !454, file: !359, line: 164)
!454 = !DISubprogram(name: "realloc", scope: !298, file: !298, line: 550, type: !455, flags: DIFlagPrototyped, spFlags: 0)
!455 = !DISubroutineType(types: !456)
!456 = !{!101, !101, !391}
!457 = !DIImportedEntity(tag: DW_TAG_imported_declaration, scope: !105, entity: !458, file: !359, line: 165)
!458 = !DISubprogram(name: "srand", scope: !298, file: !298, line: 455, type: !459, flags: DIFlagPrototyped, spFlags: 0)
!459 = !DISubroutineType(types: !460)
!460 = !{null, !9}
!461 = !DIImportedEntity(tag: DW_TAG_imported_declaration, scope: !105, entity: !462, file: !359, line: 166)
!462 = !DISubprogram(name: "strtod", scope: !298, file: !298, line: 117, type: !463, flags: DIFlagPrototyped, spFlags: 0)
!463 = !DISubroutineType(types: !464)
!464 = !{!100, !440, !465}
!465 = !DIDerivedType(tag: DW_TAG_restrict_type, baseType: !466)
!466 = !DIDerivedType(tag: DW_TAG_pointer_type, baseType: !418, size: 64)
!467 = !DIImportedEntity(tag: DW_TAG_imported_declaration, scope: !105, entity: !468, file: !359, line: 167)
!468 = !DISubprogram(name: "strtol", scope: !298, file: !298, line: 176, type: !469, flags: DIFlagPrototyped, spFlags: 0)
!469 = !DISubroutineType(types: !470)
!470 = !{!208, !440, !465, !110}
!471 = !DIImportedEntity(tag: DW_TAG_imported_declaration, scope: !105, entity: !472, file: !359, line: 168)
!472 = !DISubprogram(name: "strtoul", scope: !298, file: !298, line: 180, type: !473, flags: DIFlagPrototyped, spFlags: 0)
!473 = !DISubroutineType(types: !474)
!474 = !{!393, !440, !465, !110}
!475 = !DIImportedEntity(tag: DW_TAG_imported_declaration, scope: !105, entity: !476, file: !359, line: 169)
!476 = !DISubprogram(name: "system", scope: !298, file: !298, line: 784, type: !379, flags: DIFlagPrototyped, spFlags: 0)
!477 = !DIImportedEntity(tag: DW_TAG_imported_declaration, scope: !105, entity: !478, file: !359, line: 171)
!478 = !DISubprogram(name: "wcstombs", scope: !298, file: !298, line: 936, type: !479, flags: DIFlagPrototyped, spFlags: 0)
!479 = !DISubroutineType(types: !480)
!480 = !{!391, !481, !482, !391}
!481 = !DIDerivedType(tag: DW_TAG_restrict_type, baseType: !418)
!482 = !DIDerivedType(tag: DW_TAG_restrict_type, baseType: !483)
!483 = !DIDerivedType(tag: DW_TAG_pointer_type, baseType: !484, size: 64)
!484 = !DIDerivedType(tag: DW_TAG_const_type, baseType: !439)
!485 = !DIImportedEntity(tag: DW_TAG_imported_declaration, scope: !105, entity: !486, file: !359, line: 172)
!486 = !DISubprogram(name: "wctomb", scope: !298, file: !298, line: 929, type: !487, flags: DIFlagPrototyped, spFlags: 0)
!487 = !DISubroutineType(types: !488)
!488 = !{!110, !418, !439}
!489 = !DIImportedEntity(tag: DW_TAG_imported_declaration, scope: !490, entity: !491, file: !359, line: 200)
!490 = !DINamespace(name: "__gnu_cxx", scope: null)
!491 = !DIDerivedType(tag: DW_TAG_typedef, name: "lldiv_t", file: !298, line: 80, baseType: !492)
!492 = distinct !DICompositeType(tag: DW_TAG_structure_type, file: !298, line: 76, size: 128, flags: DIFlagTypePassByValue, elements: !493, identifier: "_ZTS7lldiv_t")
!493 = !{!494, !495}
!494 = !DIDerivedType(tag: DW_TAG_member, name: "quot", scope: !492, file: !298, line: 78, baseType: !219, size: 64)
!495 = !DIDerivedType(tag: DW_TAG_member, name: "rem", scope: !492, file: !298, line: 79, baseType: !219, size: 64, offset: 64)
!496 = !DIImportedEntity(tag: DW_TAG_imported_declaration, scope: !490, entity: !497, file: !359, line: 206)
!497 = !DISubprogram(name: "_Exit", scope: !298, file: !298, line: 629, type: !408, flags: DIFlagPrototyped | DIFlagNoReturn, spFlags: 0)
!498 = !DIImportedEntity(tag: DW_TAG_imported_declaration, scope: !490, entity: !499, file: !359, line: 210)
!499 = !DISubprogram(name: "llabs", scope: !298, file: !298, line: 844, type: !217, flags: DIFlagPrototyped, spFlags: 0)
!500 = !DIImportedEntity(tag: DW_TAG_imported_declaration, scope: !490, entity: !501, file: !359, line: 216)
!501 = !DISubprogram(name: "lldiv", scope: !298, file: !298, line: 858, type: !502, flags: DIFlagPrototyped, spFlags: 0)
!502 = !DISubroutineType(types: !503)
!503 = !{!491, !219, !219}
!504 = !DIImportedEntity(tag: DW_TAG_imported_declaration, scope: !490, entity: !505, file: !359, line: 227)
!505 = !DISubprogram(name: "atoll", scope: !298, file: !298, line: 112, type: !506, flags: DIFlagPrototyped, spFlags: 0)
!506 = !DISubroutineType(types: !507)
!507 = !{!219, !251}
!508 = !DIImportedEntity(tag: DW_TAG_imported_declaration, scope: !490, entity: !509, file: !359, line: 228)
!509 = !DISubprogram(name: "strtoll", scope: !298, file: !298, line: 200, type: !510, flags: DIFlagPrototyped, spFlags: 0)
!510 = !DISubroutineType(types: !511)
!511 = !{!219, !440, !465, !110}
!512 = !DIImportedEntity(tag: DW_TAG_imported_declaration, scope: !490, entity: !513, file: !359, line: 229)
!513 = !DISubprogram(name: "strtoull", scope: !298, file: !298, line: 205, type: !514, flags: DIFlagPrototyped, spFlags: 0)
!514 = !DISubroutineType(types: !515)
!515 = !{!516, !440, !465, !110}
!516 = !DIBasicType(name: "long long unsigned int", size: 64, encoding: DW_ATE_unsigned)
!517 = !DIImportedEntity(tag: DW_TAG_imported_declaration, scope: !490, entity: !518, file: !359, line: 231)
!518 = !DISubprogram(name: "strtof", scope: !298, file: !298, line: 123, type: !519, flags: DIFlagPrototyped, spFlags: 0)
!519 = !DISubroutineType(types: !520)
!520 = !{!115, !440, !465}
!521 = !DIImportedEntity(tag: DW_TAG_imported_declaration, scope: !490, entity: !522, file: !359, line: 232)
!522 = !DISubprogram(name: "strtold", scope: !298, file: !298, line: 126, type: !523, flags: DIFlagPrototyped, spFlags: 0)
!523 = !DISubroutineType(types: !524)
!524 = !{!525, !440, !465}
!525 = !DIBasicType(name: "long double", size: 128, encoding: DW_ATE_float)
!526 = !DIImportedEntity(tag: DW_TAG_imported_declaration, scope: !105, entity: !491, file: !359, line: 240)
!527 = !DIImportedEntity(tag: DW_TAG_imported_declaration, scope: !105, entity: !497, file: !359, line: 242)
!528 = !DIImportedEntity(tag: DW_TAG_imported_declaration, scope: !105, entity: !499, file: !359, line: 244)
!529 = !DIImportedEntity(tag: DW_TAG_imported_declaration, scope: !105, entity: !530, file: !359, line: 245)
!530 = !DISubprogram(name: "div", linkageName: "_ZN9__gnu_cxx3divExx", scope: !490, file: !359, line: 213, type: !502, flags: DIFlagPrototyped, spFlags: 0)
!531 = !DIImportedEntity(tag: DW_TAG_imported_declaration, scope: !105, entity: !501, file: !359, line: 246)
!532 = !DIImportedEntity(tag: DW_TAG_imported_declaration, scope: !105, entity: !505, file: !359, line: 248)
!533 = !DIImportedEntity(tag: DW_TAG_imported_declaration, scope: !105, entity: !518, file: !359, line: 249)
!534 = !DIImportedEntity(tag: DW_TAG_imported_declaration, scope: !105, entity: !509, file: !359, line: 250)
!535 = !DIImportedEntity(tag: DW_TAG_imported_declaration, scope: !105, entity: !513, file: !359, line: 251)
!536 = !DIImportedEntity(tag: DW_TAG_imported_declaration, scope: !105, entity: !522, file: !359, line: 252)
!537 = !DIImportedEntity(tag: DW_TAG_imported_declaration, scope: !4, entity: !367, file: !538, line: 38)
!538 = !DIFile(filename: "/usr/lib/gcc/x86_64-linux-gnu/9/../../../../include/c++/9/stdlib.h", directory: "")
!539 = !DIImportedEntity(tag: DW_TAG_imported_declaration, scope: !4, entity: !371, file: !538, line: 39)
!540 = !DIImportedEntity(tag: DW_TAG_imported_declaration, scope: !4, entity: !407, file: !538, line: 40)
!541 = !DIImportedEntity(tag: DW_TAG_imported_declaration, scope: !4, entity: !357, file: !538, line: 51)
!542 = !DIImportedEntity(tag: DW_TAG_imported_declaration, scope: !4, entity: !361, file: !538, line: 52)
!543 = !DIImportedEntity(tag: DW_TAG_imported_declaration, scope: !4, entity: !544, file: !538, line: 54)
!544 = !DISubprogram(name: "abs", linkageName: "_ZSt3abse", scope: !105, file: !299, line: 79, type: !545, flags: DIFlagPrototyped, spFlags: 0)
!545 = !DISubroutineType(types: !546)
!546 = !{!525, !525}
!547 = !DIImportedEntity(tag: DW_TAG_imported_declaration, scope: !4, entity: !376, file: !538, line: 55)
!548 = !DIImportedEntity(tag: DW_TAG_imported_declaration, scope: !4, entity: !378, file: !538, line: 56)
!549 = !DIImportedEntity(tag: DW_TAG_imported_declaration, scope: !4, entity: !382, file: !538, line: 57)
!550 = !DIImportedEntity(tag: DW_TAG_imported_declaration, scope: !4, entity: !386, file: !538, line: 58)
!551 = !DIImportedEntity(tag: DW_TAG_imported_declaration, scope: !4, entity: !399, file: !538, line: 59)
!552 = !DIImportedEntity(tag: DW_TAG_imported_declaration, scope: !4, entity: !530, file: !538, line: 60)
!553 = !DIImportedEntity(tag: DW_TAG_imported_declaration, scope: !4, entity: !411, file: !538, line: 61)
!554 = !DIImportedEntity(tag: DW_TAG_imported_declaration, scope: !4, entity: !415, file: !538, line: 62)
!555 = !DIImportedEntity(tag: DW_TAG_imported_declaration, scope: !4, entity: !420, file: !538, line: 63)
!556 = !DIImportedEntity(tag: DW_TAG_imported_declaration, scope: !4, entity: !422, file: !538, line: 64)
!557 = !DIImportedEntity(tag: DW_TAG_imported_declaration, scope: !4, entity: !426, file: !538, line: 65)
!558 = !DIImportedEntity(tag: DW_TAG_imported_declaration, scope: !4, entity: !430, file: !538, line: 67)
!559 = !DIImportedEntity(tag: DW_TAG_imported_declaration, scope: !4, entity: !434, file: !538, line: 68)
!560 = !DIImportedEntity(tag: DW_TAG_imported_declaration, scope: !4, entity: !442, file: !538, line: 69)
!561 = !DIImportedEntity(tag: DW_TAG_imported_declaration, scope: !4, entity: !446, file: !538, line: 71)
!562 = !DIImportedEntity(tag: DW_TAG_imported_declaration, scope: !4, entity: !450, file: !538, line: 72)
!563 = !DIImportedEntity(tag: DW_TAG_imported_declaration, scope: !4, entity: !454, file: !538, line: 73)
!564 = !DIImportedEntity(tag: DW_TAG_imported_declaration, scope: !4, entity: !458, file: !538, line: 74)
!565 = !DIImportedEntity(tag: DW_TAG_imported_declaration, scope: !4, entity: !462, file: !538, line: 75)
!566 = !DIImportedEntity(tag: DW_TAG_imported_declaration, scope: !4, entity: !468, file: !538, line: 76)
!567 = !DIImportedEntity(tag: DW_TAG_imported_declaration, scope: !4, entity: !472, file: !538, line: 77)
!568 = !DIImportedEntity(tag: DW_TAG_imported_declaration, scope: !4, entity: !476, file: !538, line: 78)
!569 = !DIImportedEntity(tag: DW_TAG_imported_declaration, scope: !4, entity: !478, file: !538, line: 80)
!570 = !DIImportedEntity(tag: DW_TAG_imported_declaration, scope: !4, entity: !486, file: !538, line: 81)
!571 = !DIImportedEntity(tag: DW_TAG_imported_declaration, scope: !105, entity: !572, file: !574, line: 414)
!572 = !DISubprogram(name: "acosf", linkageName: "_ZL5acosff", scope: !573, file: !573, line: 1126, type: !113, flags: DIFlagPrototyped, spFlags: DISPFlagLocalToUnit)
!573 = !DIFile(filename: "/usr/local/cuda/include/math_functions.hpp", directory: "")
!574 = !DIFile(filename: "xstack/llvm-install-debug/lib/clang/9.0.0/include/__clang_cuda_cmath.h", directory: "/u/NAS_SCRATCH/yc0769")
!575 = !DIImportedEntity(tag: DW_TAG_imported_declaration, scope: !105, entity: !576, file: !574, line: 415)
!576 = !DISubprogram(name: "acoshf", linkageName: "_ZL6acoshff", scope: !573, file: !573, line: 1154, type: !113, flags: DIFlagPrototyped, spFlags: DISPFlagLocalToUnit)
!577 = !DIImportedEntity(tag: DW_TAG_imported_declaration, scope: !105, entity: !578, file: !574, line: 416)
!578 = !DISubprogram(name: "asinf", linkageName: "_ZL5asinff", scope: !573, file: !573, line: 1121, type: !113, flags: DIFlagPrototyped, spFlags: DISPFlagLocalToUnit)
!579 = !DIImportedEntity(tag: DW_TAG_imported_declaration, scope: !105, entity: !580, file: !574, line: 417)
!580 = !DISubprogram(name: "asinhf", linkageName: "_ZL6asinhff", scope: !573, file: !573, line: 1159, type: !113, flags: DIFlagPrototyped, spFlags: DISPFlagLocalToUnit)
!581 = !DIImportedEntity(tag: DW_TAG_imported_declaration, scope: !105, entity: !582, file: !574, line: 418)
!582 = !DISubprogram(name: "atan2f", linkageName: "_ZL6atan2fff", scope: !573, file: !573, line: 1111, type: !126, flags: DIFlagPrototyped, spFlags: DISPFlagLocalToUnit)
!583 = !DIImportedEntity(tag: DW_TAG_imported_declaration, scope: !105, entity: !584, file: !574, line: 419)
!584 = !DISubprogram(name: "atanf", linkageName: "_ZL5atanff", scope: !573, file: !573, line: 1116, type: !113, flags: DIFlagPrototyped, spFlags: DISPFlagLocalToUnit)
!585 = !DIImportedEntity(tag: DW_TAG_imported_declaration, scope: !105, entity: !586, file: !574, line: 420)
!586 = !DISubprogram(name: "atanhf", linkageName: "_ZL6atanhff", scope: !573, file: !573, line: 1164, type: !113, flags: DIFlagPrototyped, spFlags: DISPFlagLocalToUnit)
!587 = !DIImportedEntity(tag: DW_TAG_imported_declaration, scope: !105, entity: !588, file: !574, line: 421)
!588 = !DISubprogram(name: "cbrtf", linkageName: "_ZL5cbrtff", scope: !573, file: !573, line: 1199, type: !113, flags: DIFlagPrototyped, spFlags: DISPFlagLocalToUnit)
!589 = !DIImportedEntity(tag: DW_TAG_imported_declaration, scope: !105, entity: !590, file: !574, line: 422)
!590 = !DISubprogram(name: "ceilf", linkageName: "_ZL5ceilff", scope: !591, file: !591, line: 647, type: !113, flags: DIFlagPrototyped, spFlags: DISPFlagLocalToUnit)
!591 = !DIFile(filename: "/usr/local/cuda/include/device_functions.hpp", directory: "")
!592 = !DIImportedEntity(tag: DW_TAG_imported_declaration, scope: !105, entity: !593, file: !574, line: 423)
!593 = !DISubprogram(name: "copysignf", linkageName: "_ZL9copysignfff", scope: !573, file: !573, line: 973, type: !126, flags: DIFlagPrototyped, spFlags: DISPFlagLocalToUnit)
!594 = !DIImportedEntity(tag: DW_TAG_imported_declaration, scope: !105, entity: !595, file: !574, line: 424)
!595 = !DISubprogram(name: "cosf", linkageName: "_ZL4cosff", scope: !573, file: !573, line: 1027, type: !113, flags: DIFlagPrototyped, spFlags: DISPFlagLocalToUnit)
!596 = !DIImportedEntity(tag: DW_TAG_imported_declaration, scope: !105, entity: !597, file: !574, line: 425)
!597 = !DISubprogram(name: "coshf", linkageName: "_ZL5coshff", scope: !573, file: !573, line: 1096, type: !113, flags: DIFlagPrototyped, spFlags: DISPFlagLocalToUnit)
!598 = !DIImportedEntity(tag: DW_TAG_imported_declaration, scope: !105, entity: !599, file: !574, line: 426)
!599 = !DISubprogram(name: "erfcf", linkageName: "_ZL5erfcff", scope: !573, file: !573, line: 1259, type: !113, flags: DIFlagPrototyped, spFlags: DISPFlagLocalToUnit)
!600 = !DIImportedEntity(tag: DW_TAG_imported_declaration, scope: !105, entity: !601, file: !574, line: 427)
!601 = !DISubprogram(name: "erff", linkageName: "_ZL4erfff", scope: !573, file: !573, line: 1249, type: !113, flags: DIFlagPrototyped, spFlags: DISPFlagLocalToUnit)
!602 = !DIImportedEntity(tag: DW_TAG_imported_declaration, scope: !105, entity: !603, file: !574, line: 428)
!603 = !DISubprogram(name: "exp2f", linkageName: "_ZL5exp2ff", scope: !591, file: !591, line: 637, type: !113, flags: DIFlagPrototyped, spFlags: DISPFlagLocalToUnit)
!604 = !DIImportedEntity(tag: DW_TAG_imported_declaration, scope: !105, entity: !605, file: !574, line: 429)
!605 = !DISubprogram(name: "expf", linkageName: "_ZL4expff", scope: !573, file: !573, line: 1078, type: !113, flags: DIFlagPrototyped, spFlags: DISPFlagLocalToUnit)
!606 = !DIImportedEntity(tag: DW_TAG_imported_declaration, scope: !105, entity: !607, file: !574, line: 430)
!607 = !DISubprogram(name: "expm1f", linkageName: "_ZL6expm1ff", scope: !573, file: !573, line: 1169, type: !113, flags: DIFlagPrototyped, spFlags: DISPFlagLocalToUnit)
!608 = !DIImportedEntity(tag: DW_TAG_imported_declaration, scope: !105, entity: !609, file: !574, line: 431)
!609 = !DISubprogram(name: "fabsf", linkageName: "_ZL5fabsff", scope: !591, file: !591, line: 582, type: !113, flags: DIFlagPrototyped, spFlags: DISPFlagLocalToUnit)
!610 = !DIImportedEntity(tag: DW_TAG_imported_declaration, scope: !105, entity: !611, file: !574, line: 432)
!611 = !DISubprogram(name: "fdimf", linkageName: "_ZL5fdimfff", scope: !573, file: !573, line: 1385, type: !126, flags: DIFlagPrototyped, spFlags: DISPFlagLocalToUnit)
!612 = !DIImportedEntity(tag: DW_TAG_imported_declaration, scope: !105, entity: !613, file: !574, line: 433)
!613 = !DISubprogram(name: "floorf", linkageName: "_ZL6floorff", scope: !591, file: !591, line: 572, type: !113, flags: DIFlagPrototyped, spFlags: DISPFlagLocalToUnit)
!614 = !DIImportedEntity(tag: DW_TAG_imported_declaration, scope: !105, entity: !615, file: !574, line: 434)
!615 = !DISubprogram(name: "fmaf", linkageName: "_ZL4fmaffff", scope: !573, file: !573, line: 1337, type: !158, flags: DIFlagPrototyped, spFlags: DISPFlagLocalToUnit)
!616 = !DIImportedEntity(tag: DW_TAG_imported_declaration, scope: !105, entity: !617, file: !574, line: 435)
!617 = !DISubprogram(name: "fmaxf", linkageName: "_ZL5fmaxfff", scope: !591, file: !591, line: 602, type: !126, flags: DIFlagPrototyped, spFlags: DISPFlagLocalToUnit)
!618 = !DIImportedEntity(tag: DW_TAG_imported_declaration, scope: !105, entity: !619, file: !574, line: 436)
!619 = !DISubprogram(name: "fminf", linkageName: "_ZL5fminfff", scope: !591, file: !591, line: 597, type: !126, flags: DIFlagPrototyped, spFlags: DISPFlagLocalToUnit)
!620 = !DIImportedEntity(tag: DW_TAG_imported_declaration, scope: !105, entity: !621, file: !574, line: 437)
!621 = !DISubprogram(name: "fmodf", linkageName: "_ZL5fmodfff", scope: !573, file: !573, line: 1322, type: !126, flags: DIFlagPrototyped, spFlags: DISPFlagLocalToUnit)
!622 = !DIImportedEntity(tag: DW_TAG_imported_declaration, scope: !105, entity: !623, file: !574, line: 438)
!623 = !DISubprogram(name: "frexpf", linkageName: "_ZL6frexpffPi", scope: !573, file: !573, line: 1312, type: !172, flags: DIFlagPrototyped, spFlags: DISPFlagLocalToUnit)
!624 = !DIImportedEntity(tag: DW_TAG_imported_declaration, scope: !105, entity: !625, file: !574, line: 439)
!625 = !DISubprogram(name: "hypotf", linkageName: "_ZL6hypotfff", scope: !573, file: !573, line: 1174, type: !126, flags: DIFlagPrototyped, spFlags: DISPFlagLocalToUnit)
!626 = !DIImportedEntity(tag: DW_TAG_imported_declaration, scope: !105, entity: !627, file: !574, line: 440)
!627 = !DISubprogram(name: "ilogbf", linkageName: "_ZL6ilogbff", scope: !573, file: !573, line: 1390, type: !168, flags: DIFlagPrototyped, spFlags: DISPFlagLocalToUnit)
!628 = !DIImportedEntity(tag: DW_TAG_imported_declaration, scope: !105, entity: !629, file: !574, line: 441)
!629 = !DISubprogram(name: "ldexpf", linkageName: "_ZL6ldexpffi", scope: !573, file: !573, line: 1289, type: !211, flags: DIFlagPrototyped, spFlags: DISPFlagLocalToUnit)
!630 = !DIImportedEntity(tag: DW_TAG_imported_declaration, scope: !105, entity: !631, file: !574, line: 442)
!631 = !DISubprogram(name: "lgammaf", linkageName: "_ZL7lgammaff", scope: !573, file: !573, line: 1284, type: !113, flags: DIFlagPrototyped, spFlags: DISPFlagLocalToUnit)
!632 = !DIImportedEntity(tag: DW_TAG_imported_declaration, scope: !105, entity: !633, file: !574, line: 443)
!633 = !DISubprogram(name: "llrintf", linkageName: "_ZL7llrintff", scope: !573, file: !573, line: 933, type: !222, flags: DIFlagPrototyped, spFlags: DISPFlagLocalToUnit)
!634 = !DIImportedEntity(tag: DW_TAG_imported_declaration, scope: !105, entity: !635, file: !574, line: 444)
!635 = !DISubprogram(name: "llroundf", linkageName: "_ZL8llroundff", scope: !573, file: !573, line: 1371, type: !222, flags: DIFlagPrototyped, spFlags: DISPFlagLocalToUnit)
!636 = !DIImportedEntity(tag: DW_TAG_imported_declaration, scope: !105, entity: !637, file: !574, line: 445)
!637 = !DISubprogram(name: "log10f", linkageName: "_ZL6log10ff", scope: !573, file: !573, line: 1140, type: !113, flags: DIFlagPrototyped, spFlags: DISPFlagLocalToUnit)
!638 = !DIImportedEntity(tag: DW_TAG_imported_declaration, scope: !105, entity: !639, file: !574, line: 446)
!639 = !DISubprogram(name: "log1pf", linkageName: "_ZL6log1pff", scope: !573, file: !573, line: 1149, type: !113, flags: DIFlagPrototyped, spFlags: DISPFlagLocalToUnit)
!640 = !DIImportedEntity(tag: DW_TAG_imported_declaration, scope: !105, entity: !641, file: !574, line: 447)
!641 = !DISubprogram(name: "log2f", linkageName: "_ZL5log2ff", scope: !573, file: !573, line: 1069, type: !113, flags: DIFlagPrototyped, spFlags: DISPFlagLocalToUnit)
!642 = !DIImportedEntity(tag: DW_TAG_imported_declaration, scope: !105, entity: !643, file: !574, line: 448)
!643 = !DISubprogram(name: "logbf", linkageName: "_ZL5logbff", scope: !573, file: !573, line: 1395, type: !113, flags: DIFlagPrototyped, spFlags: DISPFlagLocalToUnit)
!644 = !DIImportedEntity(tag: DW_TAG_imported_declaration, scope: !105, entity: !645, file: !574, line: 449)
!645 = !DISubprogram(name: "logf", linkageName: "_ZL4logff", scope: !573, file: !573, line: 1131, type: !113, flags: DIFlagPrototyped, spFlags: DISPFlagLocalToUnit)
!646 = !DIImportedEntity(tag: DW_TAG_imported_declaration, scope: !105, entity: !647, file: !574, line: 450)
!647 = !DISubprogram(name: "lrintf", linkageName: "_ZL6lrintff", scope: !573, file: !573, line: 924, type: !236, flags: DIFlagPrototyped, spFlags: DISPFlagLocalToUnit)
!648 = !DIImportedEntity(tag: DW_TAG_imported_declaration, scope: !105, entity: !649, file: !574, line: 451)
!649 = !DISubprogram(name: "lroundf", linkageName: "_ZL7lroundff", scope: !573, file: !573, line: 1376, type: !236, flags: DIFlagPrototyped, spFlags: DISPFlagLocalToUnit)
!650 = !DIImportedEntity(tag: DW_TAG_imported_declaration, scope: !105, entity: !651, file: !574, line: 452)
!651 = !DISubprogram(name: "modff", linkageName: "_ZL5modfffPf", scope: !573, file: !573, line: 1317, type: !244, flags: DIFlagPrototyped, spFlags: DISPFlagLocalToUnit)
!652 = !DIImportedEntity(tag: DW_TAG_imported_declaration, scope: !105, entity: !653, file: !574, line: 453)
!653 = !DISubprogram(name: "nearbyintf", linkageName: "_ZL10nearbyintff", scope: !573, file: !573, line: 938, type: !113, flags: DIFlagPrototyped, spFlags: DISPFlagLocalToUnit)
!654 = !DIImportedEntity(tag: DW_TAG_imported_declaration, scope: !105, entity: !655, file: !574, line: 454)
!655 = !DISubprogram(name: "nextafterf", linkageName: "_ZL10nextafterfff", scope: !573, file: !573, line: 1002, type: !126, flags: DIFlagPrototyped, spFlags: DISPFlagLocalToUnit)
!656 = !DIImportedEntity(tag: DW_TAG_imported_declaration, scope: !105, entity: !657, file: !574, line: 455)
!657 = !DISubprogram(name: "powf", linkageName: "_ZL4powfff", scope: !573, file: !573, line: 1352, type: !126, flags: DIFlagPrototyped, spFlags: DISPFlagLocalToUnit)
!658 = !DIImportedEntity(tag: DW_TAG_imported_declaration, scope: !105, entity: !659, file: !574, line: 456)
!659 = !DISubprogram(name: "remainderf", linkageName: "_ZL10remainderfff", scope: !573, file: !573, line: 1327, type: !126, flags: DIFlagPrototyped, spFlags: DISPFlagLocalToUnit)
!660 = !DIImportedEntity(tag: DW_TAG_imported_declaration, scope: !105, entity: !661, file: !574, line: 457)
!661 = !DISubprogram(name: "remquof", linkageName: "_ZL7remquofffPi", scope: !573, file: !573, line: 1332, type: !268, flags: DIFlagPrototyped, spFlags: DISPFlagLocalToUnit)
!662 = !DIImportedEntity(tag: DW_TAG_imported_declaration, scope: !105, entity: !663, file: !574, line: 458)
!663 = !DISubprogram(name: "rintf", linkageName: "_ZL5rintff", scope: !573, file: !573, line: 919, type: !113, flags: DIFlagPrototyped, spFlags: DISPFlagLocalToUnit)
!664 = !DIImportedEntity(tag: DW_TAG_imported_declaration, scope: !105, entity: !665, file: !574, line: 459)
!665 = !DISubprogram(name: "roundf", linkageName: "_ZL6roundff", scope: !573, file: !573, line: 1366, type: !113, flags: DIFlagPrototyped, spFlags: DISPFlagLocalToUnit)
!666 = !DIImportedEntity(tag: DW_TAG_imported_declaration, scope: !105, entity: !667, file: !574, line: 462)
!667 = !DISubprogram(name: "scalblnf", linkageName: "_ZL8scalblnffl", scope: !573, file: !573, line: 1299, type: !276, flags: DIFlagPrototyped, spFlags: DISPFlagLocalToUnit)
!668 = !DIImportedEntity(tag: DW_TAG_imported_declaration, scope: !105, entity: !669, file: !574, line: 464)
!669 = !DISubprogram(name: "scalbnf", linkageName: "_ZL7scalbnffi", scope: !573, file: !573, line: 1294, type: !211, flags: DIFlagPrototyped, spFlags: DISPFlagLocalToUnit)
!670 = !DIImportedEntity(tag: DW_TAG_imported_declaration, scope: !105, entity: !671, file: !574, line: 465)
!671 = !DISubprogram(name: "sinf", linkageName: "_ZL4sinff", scope: !573, file: !573, line: 1018, type: !113, flags: DIFlagPrototyped, spFlags: DISPFlagLocalToUnit)
!672 = !DIImportedEntity(tag: DW_TAG_imported_declaration, scope: !105, entity: !673, file: !574, line: 466)
!673 = !DISubprogram(name: "sinhf", linkageName: "_ZL5sinhff", scope: !573, file: !573, line: 1101, type: !113, flags: DIFlagPrototyped, spFlags: DISPFlagLocalToUnit)
!674 = !DIImportedEntity(tag: DW_TAG_imported_declaration, scope: !105, entity: !675, file: !574, line: 467)
!675 = !DISubprogram(name: "sqrtf", linkageName: "_ZL5sqrtff", scope: !591, file: !591, line: 887, type: !113, flags: DIFlagPrototyped, spFlags: DISPFlagLocalToUnit)
!676 = !DIImportedEntity(tag: DW_TAG_imported_declaration, scope: !105, entity: !677, file: !574, line: 468)
!677 = !DISubprogram(name: "tanf", linkageName: "_ZL4tanff", scope: !573, file: !573, line: 1060, type: !113, flags: DIFlagPrototyped, spFlags: DISPFlagLocalToUnit)
!678 = !DIImportedEntity(tag: DW_TAG_imported_declaration, scope: !105, entity: !679, file: !574, line: 469)
!679 = !DISubprogram(name: "tanhf", linkageName: "_ZL5tanhff", scope: !573, file: !573, line: 1106, type: !113, flags: DIFlagPrototyped, spFlags: DISPFlagLocalToUnit)
!680 = !DIImportedEntity(tag: DW_TAG_imported_declaration, scope: !105, entity: !681, file: !574, line: 470)
!681 = !DISubprogram(name: "tgammaf", linkageName: "_ZL7tgammaff", scope: !573, file: !573, line: 1361, type: !113, flags: DIFlagPrototyped, spFlags: DISPFlagLocalToUnit)
!682 = !DIImportedEntity(tag: DW_TAG_imported_declaration, scope: !105, entity: !683, file: !574, line: 471)
!683 = !DISubprogram(name: "truncf", linkageName: "_ZL6truncff", scope: !591, file: !591, line: 642, type: !113, flags: DIFlagPrototyped, spFlags: DISPFlagLocalToUnit)
!684 = !DIImportedEntity(tag: DW_TAG_imported_declaration, scope: !4, entity: !544, file: !685, line: 38)
!685 = !DIFile(filename: "/usr/lib/gcc/x86_64-linux-gnu/9/../../../../include/c++/9/math.h", directory: "")
!686 = !DIImportedEntity(tag: DW_TAG_imported_declaration, scope: !4, entity: !687, file: !685, line: 54)
!687 = !DISubprogram(name: "modf", linkageName: "_ZSt4modfePe", scope: !105, file: !305, line: 380, type: !688, flags: DIFlagPrototyped, spFlags: 0)
!688 = !DISubroutineType(types: !689)
!689 = !{!525, !525, !690}
!690 = !DIDerivedType(tag: DW_TAG_pointer_type, baseType: !525, size: 64)
!691 = !{!"clang version 9.0.0 (git@github.com:SusanTan/llvm-project.git a1efa594106d738d0b74c9e4e2b9b779eb8b7d25)"}
!692 = distinct !DISubprogram(name: "kernel_column_sweep", linkageName: "_Z19kernel_column_sweepiiPdS_S_S_dddddd", scope: !5, file: !5, line: 18, type: !693, scopeLine: 23, flags: DIFlagPrototyped, spFlags: DISPFlagDefinition, unit: !4, retainedNodes: !695)
!693 = !DISubroutineType(types: !694)
!694 = !{null, !110, !110, !99, !99, !99, !99, !100, !100, !100, !100, !100, !100}
!695 = !{}
!696 = !DILocalVariable(name: "tsteps", arg: 1, scope: !692, file: !5, line: 18, type: !110)
!697 = !DILocation(line: 18, column: 41, scope: !692)
!698 = !DILocalVariable(name: "n", arg: 2, scope: !692, file: !5, line: 19, type: !110)
!699 = !DILocation(line: 19, column: 41, scope: !692)
!700 = !DILocalVariable(name: "u", arg: 3, scope: !692, file: !5, line: 20, type: !99)
!701 = !DILocation(line: 20, column: 45, scope: !692)
!702 = !DILocalVariable(name: "v", arg: 4, scope: !692, file: !5, line: 21, type: !99)
!703 = !DILocation(line: 21, column: 45, scope: !692)
!704 = !DILocalVariable(name: "p", arg: 5, scope: !692, file: !5, line: 22, type: !99)
!705 = !DILocation(line: 22, column: 45, scope: !692)
!706 = !DILocalVariable(name: "q", arg: 6, scope: !692, file: !5, line: 23, type: !99)
!707 = !DILocation(line: 23, column: 45, scope: !692)
!708 = !DILocalVariable(name: "a", arg: 7, scope: !692, file: !5, line: 23, type: !100)
!709 = !DILocation(line: 23, column: 55, scope: !692)
!710 = !DILocalVariable(name: "b", arg: 8, scope: !692, file: !5, line: 23, type: !100)
!711 = !DILocation(line: 23, column: 65, scope: !692)
!712 = !DILocalVariable(name: "c", arg: 9, scope: !692, file: !5, line: 23, type: !100)
!713 = !DILocation(line: 23, column: 75, scope: !692)
!714 = !DILocalVariable(name: "d", arg: 10, scope: !692, file: !5, line: 23, type: !100)
!715 = !DILocation(line: 23, column: 85, scope: !692)
!716 = !DILocalVariable(name: "e", arg: 11, scope: !692, file: !5, line: 23, type: !100)
!717 = !DILocation(line: 23, column: 95, scope: !692)
!718 = !DILocalVariable(name: "f", arg: 12, scope: !692, file: !5, line: 23, type: !100)
!719 = !DILocation(line: 23, column: 105, scope: !692)
!720 = !DILocation(line: 23, column: 108, scope: !692)
!721 = !DILocation(line: 40, column: 1, scope: !692)
!722 = distinct !DISubprogram(name: "kernel_row_sweep", linkageName: "_Z16kernel_row_sweepiiPdS_S_S_dddddd", scope: !5, file: !5, line: 43, type: !693, scopeLine: 43, flags: DIFlagPrototyped, spFlags: DISPFlagDefinition, unit: !4, retainedNodes: !695)
!723 = !DILocalVariable(name: "tsteps", arg: 1, scope: !722, file: !5, line: 43, type: !110)
!724 = !DILocation(line: 43, column: 38, scope: !722)
!725 = !DILocalVariable(name: "n", arg: 2, scope: !722, file: !5, line: 43, type: !110)
!726 = !DILocation(line: 43, column: 50, scope: !722)
!727 = !DILocalVariable(name: "u", arg: 3, scope: !722, file: !5, line: 43, type: !99)
!728 = !DILocation(line: 43, column: 61, scope: !722)
!729 = !DILocalVariable(name: "v", arg: 4, scope: !722, file: !5, line: 43, type: !99)
!730 = !DILocation(line: 43, column: 72, scope: !722)
!731 = !DILocalVariable(name: "p", arg: 5, scope: !722, file: !5, line: 43, type: !99)
!732 = !DILocation(line: 43, column: 83, scope: !722)
!733 = !DILocalVariable(name: "q", arg: 6, scope: !722, file: !5, line: 43, type: !99)
!734 = !DILocation(line: 43, column: 94, scope: !722)
!735 = !DILocalVariable(name: "a", arg: 7, scope: !722, file: !5, line: 43, type: !100)
!736 = !DILocation(line: 43, column: 104, scope: !722)
!737 = !DILocalVariable(name: "b", arg: 8, scope: !722, file: !5, line: 43, type: !100)
!738 = !DILocation(line: 43, column: 114, scope: !722)
!739 = !DILocalVariable(name: "c", arg: 9, scope: !722, file: !5, line: 43, type: !100)
!740 = !DILocation(line: 43, column: 124, scope: !722)
!741 = !DILocalVariable(name: "d", arg: 10, scope: !722, file: !5, line: 43, type: !100)
!742 = !DILocation(line: 43, column: 134, scope: !722)
!743 = !DILocalVariable(name: "e", arg: 11, scope: !722, file: !5, line: 43, type: !100)
!744 = !DILocation(line: 43, column: 144, scope: !722)
!745 = !DILocalVariable(name: "f", arg: 12, scope: !722, file: !5, line: 43, type: !100)
!746 = !DILocation(line: 43, column: 154, scope: !722)
!747 = !DILocation(line: 43, column: 157, scope: !722)
!748 = !DILocation(line: 58, column: 1, scope: !722)
!749 = distinct !DISubprogram(name: "main", scope: !5, file: !5, line: 152, type: !750, scopeLine: 153, flags: DIFlagPrototyped, spFlags: DISPFlagDefinition, unit: !4, retainedNodes: !695)
!750 = !DISubroutineType(types: !751)
!751 = !{!110, !110, !466}
!752 = !DILocalVariable(name: "argc", arg: 1, scope: !749, file: !5, line: 152, type: !110)
!753 = !DILocation(line: 152, column: 14, scope: !749)
!754 = !DILocalVariable(name: "argv", arg: 2, scope: !749, file: !5, line: 152, type: !466)
!755 = !DILocation(line: 152, column: 27, scope: !749)
!756 = !DILocalVariable(name: "n", scope: !749, file: !5, line: 155, type: !110)
!757 = !DILocation(line: 155, column: 7, scope: !749)
!758 = !DILocation(line: 155, column: 16, scope: !749)
!759 = !DILocation(line: 155, column: 11, scope: !749)
!760 = !DILocalVariable(name: "tsteps", scope: !749, file: !5, line: 156, type: !110)
!761 = !DILocation(line: 156, column: 7, scope: !749)
!762 = !DILocation(line: 156, column: 21, scope: !749)
!763 = !DILocation(line: 156, column: 16, scope: !749)
!764 = !DILocalVariable(name: "dump_code", scope: !749, file: !5, line: 157, type: !110)
!765 = !DILocation(line: 157, column: 7, scope: !749)
!766 = !DILocation(line: 157, column: 24, scope: !749)
!767 = !DILocation(line: 157, column: 19, scope: !749)
!768 = !DILocalVariable(name: "u", scope: !749, file: !5, line: 161, type: !99)
!769 = !DILocation(line: 161, column: 11, scope: !749)
!770 = !DILocation(line: 161, column: 31, scope: !749)
!771 = !DILocation(line: 161, column: 33, scope: !749)
!772 = !DILocation(line: 161, column: 32, scope: !749)
!773 = !DILocation(line: 161, column: 34, scope: !749)
!774 = !DILocation(line: 161, column: 24, scope: !749)
!775 = !DILocation(line: 161, column: 15, scope: !749)
!776 = !DILocalVariable(name: "v", scope: !749, file: !5, line: 162, type: !99)
!777 = !DILocation(line: 162, column: 11, scope: !749)
!778 = !DILocation(line: 162, column: 31, scope: !749)
!779 = !DILocation(line: 162, column: 33, scope: !749)
!780 = !DILocation(line: 162, column: 32, scope: !749)
!781 = !DILocation(line: 162, column: 34, scope: !749)
!782 = !DILocation(line: 162, column: 24, scope: !749)
!783 = !DILocation(line: 162, column: 15, scope: !749)
!784 = !DILocalVariable(name: "p", scope: !749, file: !5, line: 163, type: !99)
!785 = !DILocation(line: 163, column: 11, scope: !749)
!786 = !DILocation(line: 163, column: 31, scope: !749)
!787 = !DILocation(line: 163, column: 33, scope: !749)
!788 = !DILocation(line: 163, column: 32, scope: !749)
!789 = !DILocation(line: 163, column: 34, scope: !749)
!790 = !DILocation(line: 163, column: 24, scope: !749)
!791 = !DILocation(line: 163, column: 15, scope: !749)
!792 = !DILocalVariable(name: "q", scope: !749, file: !5, line: 164, type: !99)
!793 = !DILocation(line: 164, column: 11, scope: !749)
!794 = !DILocation(line: 164, column: 31, scope: !749)
!795 = !DILocation(line: 164, column: 33, scope: !749)
!796 = !DILocation(line: 164, column: 32, scope: !749)
!797 = !DILocation(line: 164, column: 34, scope: !749)
!798 = !DILocation(line: 164, column: 24, scope: !749)
!799 = !DILocation(line: 164, column: 15, scope: !749)
!800 = !DILocation(line: 168, column: 15, scope: !749)
!801 = !DILocation(line: 168, column: 18, scope: !749)
!802 = !DILocation(line: 168, column: 21, scope: !749)
!803 = !DILocation(line: 168, column: 24, scope: !749)
!804 = !DILocation(line: 168, column: 27, scope: !749)
!805 = !DILocation(line: 168, column: 3, scope: !749)
!806 = !DILocation(line: 173, column: 10, scope: !749)
!807 = !DILocation(line: 173, column: 18, scope: !749)
!808 = !DILocation(line: 173, column: 21, scope: !749)
!809 = !DILocation(line: 173, column: 24, scope: !749)
!810 = !DILocation(line: 173, column: 27, scope: !749)
!811 = !DILocation(line: 173, column: 30, scope: !749)
!812 = !DILocation(line: 173, column: 3, scope: !749)
!813 = !DILocation(line: 178, column: 6, scope: !814)
!814 = distinct !DILexicalBlock(scope: !749, file: !5, line: 178, column: 6)
!815 = !DILocation(line: 178, column: 16, scope: !814)
!816 = !DILocation(line: 178, column: 6, scope: !749)
!817 = !DILocation(line: 178, column: 34, scope: !814)
!818 = !DILocation(line: 178, column: 37, scope: !814)
!819 = !DILocation(line: 178, column: 22, scope: !814)
!820 = !DILocation(line: 181, column: 15, scope: !749)
!821 = !DILocation(line: 181, column: 3, scope: !749)
!822 = !DILocation(line: 182, column: 15, scope: !749)
!823 = !DILocation(line: 182, column: 3, scope: !749)
!824 = !DILocation(line: 183, column: 15, scope: !749)
!825 = !DILocation(line: 183, column: 3, scope: !749)
!826 = !DILocation(line: 184, column: 15, scope: !749)
!827 = !DILocation(line: 184, column: 3, scope: !749)
!828 = !DILocation(line: 187, column: 3, scope: !749)
!829 = distinct !DISubprogram(name: "init_array", linkageName: "_ZL10init_arrayiPdS_S_S_", scope: !5, file: !5, line: 119, type: !830, scopeLine: 121, flags: DIFlagPrototyped, spFlags: DISPFlagLocalToUnit | DISPFlagDefinition, unit: !4, retainedNodes: !695)
!830 = !DISubroutineType(types: !831)
!831 = !{null, !110, !99, !99, !99, !99}
!832 = !DILocalVariable(name: "n", arg: 1, scope: !829, file: !5, line: 119, type: !110)
!833 = !DILocation(line: 119, column: 29, scope: !829)
!834 = !DILocalVariable(name: "u", arg: 2, scope: !829, file: !5, line: 120, type: !99)
!835 = !DILocation(line: 120, column: 12, scope: !829)
!836 = !DILocalVariable(name: "v", arg: 3, scope: !829, file: !5, line: 120, type: !99)
!837 = !DILocation(line: 120, column: 23, scope: !829)
!838 = !DILocalVariable(name: "p", arg: 4, scope: !829, file: !5, line: 120, type: !99)
!839 = !DILocation(line: 120, column: 33, scope: !829)
!840 = !DILocalVariable(name: "q", arg: 5, scope: !829, file: !5, line: 120, type: !99)
!841 = !DILocation(line: 120, column: 43, scope: !829)
!842 = !DILocalVariable(name: "i", scope: !829, file: !5, line: 122, type: !110)
!843 = !DILocation(line: 122, column: 7, scope: !829)
!844 = !DILocalVariable(name: "j", scope: !829, file: !5, line: 122, type: !110)
!845 = !DILocation(line: 122, column: 10, scope: !829)
!846 = !DILocation(line: 124, column: 10, scope: !847)
!847 = distinct !DILexicalBlock(scope: !829, file: !5, line: 124, column: 3)
!848 = !DILocation(line: 124, column: 8, scope: !847)
!849 = !DILocation(line: 124, column: 15, scope: !850)
!850 = distinct !DILexicalBlock(scope: !847, file: !5, line: 124, column: 3)
!851 = !DILocation(line: 124, column: 19, scope: !850)
!852 = !DILocation(line: 124, column: 17, scope: !850)
!853 = !DILocation(line: 124, column: 3, scope: !847)
!854 = !DILocation(line: 125, column: 12, scope: !855)
!855 = distinct !DILexicalBlock(scope: !850, file: !5, line: 125, column: 5)
!856 = !DILocation(line: 125, column: 10, scope: !855)
!857 = !DILocation(line: 125, column: 17, scope: !858)
!858 = distinct !DILexicalBlock(scope: !855, file: !5, line: 125, column: 5)
!859 = !DILocation(line: 125, column: 21, scope: !858)
!860 = !DILocation(line: 125, column: 19, scope: !858)
!861 = !DILocation(line: 125, column: 5, scope: !855)
!862 = !DILocation(line: 126, column: 27, scope: !863)
!863 = distinct !DILexicalBlock(scope: !858, file: !5, line: 125, column: 28)
!864 = !DILocation(line: 126, column: 31, scope: !863)
!865 = !DILocation(line: 126, column: 29, scope: !863)
!866 = !DILocation(line: 126, column: 33, scope: !863)
!867 = !DILocation(line: 126, column: 32, scope: !863)
!868 = !DILocation(line: 126, column: 26, scope: !863)
!869 = !DILocation(line: 126, column: 38, scope: !863)
!870 = !DILocation(line: 126, column: 36, scope: !863)
!871 = !DILocation(line: 126, column: 6, scope: !863)
!872 = !DILocation(line: 126, column: 8, scope: !863)
!873 = !DILocation(line: 126, column: 10, scope: !863)
!874 = !DILocation(line: 126, column: 9, scope: !863)
!875 = !DILocation(line: 126, column: 12, scope: !863)
!876 = !DILocation(line: 126, column: 11, scope: !863)
!877 = !DILocation(line: 126, column: 15, scope: !863)
!878 = !DILocation(line: 127, column: 7, scope: !863)
!879 = !DILocation(line: 127, column: 9, scope: !863)
!880 = !DILocation(line: 127, column: 11, scope: !863)
!881 = !DILocation(line: 127, column: 10, scope: !863)
!882 = !DILocation(line: 127, column: 13, scope: !863)
!883 = !DILocation(line: 127, column: 12, scope: !863)
!884 = !DILocation(line: 127, column: 16, scope: !863)
!885 = !DILocation(line: 128, column: 7, scope: !863)
!886 = !DILocation(line: 128, column: 9, scope: !863)
!887 = !DILocation(line: 128, column: 11, scope: !863)
!888 = !DILocation(line: 128, column: 10, scope: !863)
!889 = !DILocation(line: 128, column: 13, scope: !863)
!890 = !DILocation(line: 128, column: 12, scope: !863)
!891 = !DILocation(line: 128, column: 16, scope: !863)
!892 = !DILocation(line: 129, column: 7, scope: !863)
!893 = !DILocation(line: 129, column: 9, scope: !863)
!894 = !DILocation(line: 129, column: 11, scope: !863)
!895 = !DILocation(line: 129, column: 10, scope: !863)
!896 = !DILocation(line: 129, column: 13, scope: !863)
!897 = !DILocation(line: 129, column: 12, scope: !863)
!898 = !DILocation(line: 129, column: 16, scope: !863)
!899 = !DILocation(line: 130, column: 5, scope: !863)
!900 = !DILocation(line: 125, column: 25, scope: !858)
!901 = !DILocation(line: 125, column: 5, scope: !858)
!902 = distinct !{!902, !861, !903}
!903 = !DILocation(line: 130, column: 5, scope: !855)
!904 = !DILocation(line: 124, column: 23, scope: !850)
!905 = !DILocation(line: 124, column: 3, scope: !850)
!906 = distinct !{!906, !853, !907}
!907 = !DILocation(line: 130, column: 5, scope: !847)
!908 = !DILocation(line: 131, column: 1, scope: !829)
!909 = distinct !DISubprogram(name: "kernel", linkageName: "_ZL6kerneliiPdS_S_S_", scope: !5, file: !5, line: 66, type: !910, scopeLine: 72, flags: DIFlagPrototyped, spFlags: DISPFlagLocalToUnit | DISPFlagDefinition, unit: !4, retainedNodes: !695)
!910 = !DISubroutineType(types: !911)
!911 = !{null, !110, !110, !99, !99, !99, !99}
!912 = !DILocalVariable(name: "tsteps", arg: 1, scope: !909, file: !5, line: 67, type: !110)
!913 = !DILocation(line: 67, column: 9, scope: !909)
!914 = !DILocalVariable(name: "n", arg: 2, scope: !909, file: !5, line: 68, type: !110)
!915 = !DILocation(line: 68, column: 9, scope: !909)
!916 = !DILocalVariable(name: "u", arg: 3, scope: !909, file: !5, line: 69, type: !99)
!917 = !DILocation(line: 69, column: 13, scope: !909)
!918 = !DILocalVariable(name: "v", arg: 4, scope: !909, file: !5, line: 70, type: !99)
!919 = !DILocation(line: 70, column: 13, scope: !909)
!920 = !DILocalVariable(name: "p", arg: 5, scope: !909, file: !5, line: 71, type: !99)
!921 = !DILocation(line: 71, column: 13, scope: !909)
!922 = !DILocalVariable(name: "q", arg: 6, scope: !909, file: !5, line: 72, type: !99)
!923 = !DILocation(line: 72, column: 13, scope: !909)
!924 = !DILocalVariable(name: "threadsPerBlock", scope: !909, file: !5, line: 73, type: !9)
!925 = !DILocation(line: 73, column: 12, scope: !909)
!926 = !DILocalVariable(name: "DX", scope: !909, file: !5, line: 75, type: !100)
!927 = !DILocation(line: 75, column: 10, scope: !909)
!928 = !DILocation(line: 75, column: 27, scope: !909)
!929 = !DILocation(line: 75, column: 17, scope: !909)
!930 = !DILocalVariable(name: "DY", scope: !909, file: !5, line: 76, type: !100)
!931 = !DILocation(line: 76, column: 10, scope: !909)
!932 = !DILocation(line: 76, column: 27, scope: !909)
!933 = !DILocation(line: 76, column: 17, scope: !909)
!934 = !DILocalVariable(name: "DT", scope: !909, file: !5, line: 77, type: !100)
!935 = !DILocation(line: 77, column: 10, scope: !909)
!936 = !DILocation(line: 77, column: 27, scope: !909)
!937 = !DILocation(line: 77, column: 17, scope: !909)
!938 = !DILocalVariable(name: "B1", scope: !909, file: !5, line: 78, type: !100)
!939 = !DILocation(line: 78, column: 10, scope: !909)
!940 = !DILocalVariable(name: "B2", scope: !909, file: !5, line: 79, type: !100)
!941 = !DILocation(line: 79, column: 10, scope: !909)
!942 = !DILocalVariable(name: "mul1", scope: !909, file: !5, line: 80, type: !100)
!943 = !DILocation(line: 80, column: 10, scope: !909)
!944 = !DILocation(line: 80, column: 17, scope: !909)
!945 = !DILocation(line: 80, column: 22, scope: !909)
!946 = !DILocation(line: 80, column: 20, scope: !909)
!947 = !DILocation(line: 80, column: 27, scope: !909)
!948 = !DILocation(line: 80, column: 25, scope: !909)
!949 = !DILocation(line: 80, column: 32, scope: !909)
!950 = !DILocation(line: 80, column: 30, scope: !909)
!951 = !DILocalVariable(name: "mul2", scope: !909, file: !5, line: 81, type: !100)
!952 = !DILocation(line: 81, column: 10, scope: !909)
!953 = !DILocation(line: 81, column: 17, scope: !909)
!954 = !DILocation(line: 81, column: 22, scope: !909)
!955 = !DILocation(line: 81, column: 20, scope: !909)
!956 = !DILocation(line: 81, column: 27, scope: !909)
!957 = !DILocation(line: 81, column: 25, scope: !909)
!958 = !DILocation(line: 81, column: 32, scope: !909)
!959 = !DILocation(line: 81, column: 30, scope: !909)
!960 = !DILocalVariable(name: "a", scope: !909, file: !5, line: 83, type: !100)
!961 = !DILocation(line: 83, column: 10, scope: !909)
!962 = !DILocation(line: 83, column: 15, scope: !909)
!963 = !DILocation(line: 83, column: 14, scope: !909)
!964 = !DILocation(line: 83, column: 20, scope: !909)
!965 = !DILocalVariable(name: "b", scope: !909, file: !5, line: 84, type: !100)
!966 = !DILocation(line: 84, column: 10, scope: !909)
!967 = !DILocation(line: 84, column: 18, scope: !909)
!968 = !DILocation(line: 84, column: 16, scope: !909)
!969 = !DILocalVariable(name: "c", scope: !909, file: !5, line: 85, type: !100)
!970 = !DILocation(line: 85, column: 10, scope: !909)
!971 = !DILocation(line: 85, column: 14, scope: !909)
!972 = !DILocalVariable(name: "d", scope: !909, file: !5, line: 86, type: !100)
!973 = !DILocation(line: 86, column: 10, scope: !909)
!974 = !DILocation(line: 86, column: 15, scope: !909)
!975 = !DILocation(line: 86, column: 14, scope: !909)
!976 = !DILocation(line: 86, column: 20, scope: !909)
!977 = !DILocalVariable(name: "e", scope: !909, file: !5, line: 87, type: !100)
!978 = !DILocation(line: 87, column: 10, scope: !909)
!979 = !DILocation(line: 87, column: 18, scope: !909)
!980 = !DILocation(line: 87, column: 16, scope: !909)
!981 = !DILocalVariable(name: "f", scope: !909, file: !5, line: 88, type: !100)
!982 = !DILocation(line: 88, column: 10, scope: !909)
!983 = !DILocation(line: 88, column: 14, scope: !909)
!984 = !DILocalVariable(name: "dev_u", scope: !909, file: !5, line: 92, type: !99)
!985 = !DILocation(line: 92, column: 11, scope: !909)
!986 = !DILocalVariable(name: "dev_v", scope: !909, file: !5, line: 93, type: !99)
!987 = !DILocation(line: 93, column: 11, scope: !909)
!988 = !DILocalVariable(name: "dev_p", scope: !909, file: !5, line: 94, type: !99)
!989 = !DILocation(line: 94, column: 11, scope: !909)
!990 = !DILocalVariable(name: "dev_q", scope: !909, file: !5, line: 95, type: !99)
!991 = !DILocation(line: 95, column: 11, scope: !909)
!992 = !DILocation(line: 96, column: 22, scope: !909)
!993 = !DILocation(line: 96, column: 24, scope: !909)
!994 = !DILocation(line: 96, column: 23, scope: !909)
!995 = !DILocation(line: 96, column: 25, scope: !909)
!996 = !DILocation(line: 96, column: 3, scope: !909)
!997 = !DILocation(line: 97, column: 22, scope: !909)
!998 = !DILocation(line: 97, column: 24, scope: !909)
!999 = !DILocation(line: 97, column: 23, scope: !909)
!1000 = !DILocation(line: 97, column: 25, scope: !909)
!1001 = !DILocation(line: 97, column: 3, scope: !909)
!1002 = !DILocation(line: 98, column: 22, scope: !909)
!1003 = !DILocation(line: 98, column: 24, scope: !909)
!1004 = !DILocation(line: 98, column: 23, scope: !909)
!1005 = !DILocation(line: 98, column: 25, scope: !909)
!1006 = !DILocation(line: 98, column: 3, scope: !909)
!1007 = !DILocation(line: 99, column: 22, scope: !909)
!1008 = !DILocation(line: 99, column: 24, scope: !909)
!1009 = !DILocation(line: 99, column: 23, scope: !909)
!1010 = !DILocation(line: 99, column: 25, scope: !909)
!1011 = !DILocation(line: 99, column: 3, scope: !909)
!1012 = !DILocation(line: 100, column: 14, scope: !909)
!1013 = !DILocation(line: 100, column: 21, scope: !909)
!1014 = !DILocation(line: 100, column: 24, scope: !909)
!1015 = !DILocation(line: 100, column: 26, scope: !909)
!1016 = !DILocation(line: 100, column: 25, scope: !909)
!1017 = !DILocation(line: 100, column: 27, scope: !909)
!1018 = !DILocation(line: 100, column: 3, scope: !909)
!1019 = !DILocation(line: 101, column: 14, scope: !909)
!1020 = !DILocation(line: 101, column: 21, scope: !909)
!1021 = !DILocation(line: 101, column: 24, scope: !909)
!1022 = !DILocation(line: 101, column: 26, scope: !909)
!1023 = !DILocation(line: 101, column: 25, scope: !909)
!1024 = !DILocation(line: 101, column: 27, scope: !909)
!1025 = !DILocation(line: 101, column: 3, scope: !909)
!1026 = !DILocation(line: 102, column: 14, scope: !909)
!1027 = !DILocation(line: 102, column: 21, scope: !909)
!1028 = !DILocation(line: 102, column: 24, scope: !909)
!1029 = !DILocation(line: 102, column: 26, scope: !909)
!1030 = !DILocation(line: 102, column: 25, scope: !909)
!1031 = !DILocation(line: 102, column: 27, scope: !909)
!1032 = !DILocation(line: 102, column: 3, scope: !909)
!1033 = !DILocation(line: 103, column: 14, scope: !909)
!1034 = !DILocation(line: 103, column: 21, scope: !909)
!1035 = !DILocation(line: 103, column: 24, scope: !909)
!1036 = !DILocation(line: 103, column: 26, scope: !909)
!1037 = !DILocation(line: 103, column: 25, scope: !909)
!1038 = !DILocation(line: 103, column: 27, scope: !909)
!1039 = !DILocation(line: 103, column: 3, scope: !909)
!1040 = !DILocalVariable(name: "t", scope: !1041, file: !5, line: 104, type: !110)
!1041 = distinct !DILexicalBlock(scope: !909, file: !5, line: 104, column: 3)
!1042 = !DILocation(line: 104, column: 12, scope: !1041)
!1043 = !DILocation(line: 104, column: 8, scope: !1041)
!1044 = !DILocation(line: 104, column: 19, scope: !1045)
!1045 = distinct !DILexicalBlock(scope: !1041, file: !5, line: 104, column: 3)
!1046 = !DILocation(line: 104, column: 24, scope: !1045)
!1047 = !DILocation(line: 104, column: 21, scope: !1045)
!1048 = !DILocation(line: 104, column: 3, scope: !1041)
!1049 = !DILocation(line: 106, column: 38, scope: !1050)
!1050 = distinct !DILexicalBlock(scope: !1045, file: !5, line: 104, column: 37)
!1051 = !DILocation(line: 106, column: 40, scope: !1050)
!1052 = !DILocation(line: 106, column: 45, scope: !1050)
!1053 = !DILocation(line: 106, column: 27, scope: !1050)
!1054 = !DILocation(line: 106, column: 63, scope: !1050)
!1055 = !DILocation(line: 106, column: 24, scope: !1050)
!1056 = !DILocation(line: 106, column: 5, scope: !1050)
!1057 = !DILocation(line: 106, column: 82, scope: !1050)
!1058 = !DILocation(line: 106, column: 90, scope: !1050)
!1059 = !DILocation(line: 106, column: 93, scope: !1050)
!1060 = !DILocation(line: 106, column: 100, scope: !1050)
!1061 = !DILocation(line: 106, column: 107, scope: !1050)
!1062 = !DILocation(line: 106, column: 114, scope: !1050)
!1063 = !DILocation(line: 106, column: 121, scope: !1050)
!1064 = !DILocation(line: 106, column: 124, scope: !1050)
!1065 = !DILocation(line: 106, column: 127, scope: !1050)
!1066 = !DILocation(line: 106, column: 130, scope: !1050)
!1067 = !DILocation(line: 106, column: 133, scope: !1050)
!1068 = !DILocation(line: 106, column: 136, scope: !1050)
!1069 = !DILocation(line: 109, column: 35, scope: !1050)
!1070 = !DILocation(line: 109, column: 37, scope: !1050)
!1071 = !DILocation(line: 109, column: 42, scope: !1050)
!1072 = !DILocation(line: 109, column: 24, scope: !1050)
!1073 = !DILocation(line: 109, column: 60, scope: !1050)
!1074 = !DILocation(line: 109, column: 21, scope: !1050)
!1075 = !DILocation(line: 109, column: 5, scope: !1050)
!1076 = !DILocation(line: 109, column: 79, scope: !1050)
!1077 = !DILocation(line: 109, column: 87, scope: !1050)
!1078 = !DILocation(line: 109, column: 90, scope: !1050)
!1079 = !DILocation(line: 109, column: 97, scope: !1050)
!1080 = !DILocation(line: 109, column: 104, scope: !1050)
!1081 = !DILocation(line: 109, column: 111, scope: !1050)
!1082 = !DILocation(line: 109, column: 118, scope: !1050)
!1083 = !DILocation(line: 109, column: 121, scope: !1050)
!1084 = !DILocation(line: 109, column: 124, scope: !1050)
!1085 = !DILocation(line: 109, column: 127, scope: !1050)
!1086 = !DILocation(line: 109, column: 130, scope: !1050)
!1087 = !DILocation(line: 109, column: 133, scope: !1050)
!1088 = !DILocation(line: 110, column: 3, scope: !1050)
!1089 = !DILocation(line: 104, column: 33, scope: !1045)
!1090 = !DILocation(line: 104, column: 3, scope: !1045)
!1091 = distinct !{!1091, !1048, !1092}
!1092 = !DILocation(line: 110, column: 3, scope: !1041)
!1093 = !DILocation(line: 111, column: 14, scope: !909)
!1094 = !DILocation(line: 111, column: 17, scope: !909)
!1095 = !DILocation(line: 111, column: 24, scope: !909)
!1096 = !DILocation(line: 111, column: 26, scope: !909)
!1097 = !DILocation(line: 111, column: 25, scope: !909)
!1098 = !DILocation(line: 111, column: 27, scope: !909)
!1099 = !DILocation(line: 111, column: 3, scope: !909)
!1100 = !DILocation(line: 112, column: 19, scope: !909)
!1101 = !DILocation(line: 112, column: 3, scope: !909)
!1102 = !DILocation(line: 113, column: 19, scope: !909)
!1103 = !DILocation(line: 113, column: 3, scope: !909)
!1104 = !DILocation(line: 114, column: 19, scope: !909)
!1105 = !DILocation(line: 114, column: 3, scope: !909)
!1106 = !DILocation(line: 115, column: 19, scope: !909)
!1107 = !DILocation(line: 115, column: 3, scope: !909)
!1108 = !DILocation(line: 116, column: 1, scope: !909)
!1109 = distinct !DISubprogram(name: "print_array", linkageName: "_ZL11print_arrayiPd", scope: !5, file: !5, line: 137, type: !1110, scopeLine: 140, flags: DIFlagPrototyped, spFlags: DISPFlagLocalToUnit | DISPFlagDefinition, unit: !4, retainedNodes: !695)
!1110 = !DISubroutineType(types: !1111)
!1111 = !{null, !110, !99}
!1112 = !DILocalVariable(name: "n", arg: 1, scope: !1109, file: !5, line: 137, type: !110)
!1113 = !DILocation(line: 137, column: 22, scope: !1109)
!1114 = !DILocalVariable(name: "u", arg: 2, scope: !1109, file: !5, line: 138, type: !99)
!1115 = !DILocation(line: 138, column: 12, scope: !1109)
!1116 = !DILocalVariable(name: "i", scope: !1109, file: !5, line: 141, type: !110)
!1117 = !DILocation(line: 141, column: 7, scope: !1109)
!1118 = !DILocalVariable(name: "j", scope: !1109, file: !5, line: 141, type: !110)
!1119 = !DILocation(line: 141, column: 10, scope: !1109)
!1120 = !DILocation(line: 143, column: 10, scope: !1121)
!1121 = distinct !DILexicalBlock(scope: !1109, file: !5, line: 143, column: 3)
!1122 = !DILocation(line: 143, column: 8, scope: !1121)
!1123 = !DILocation(line: 143, column: 15, scope: !1124)
!1124 = distinct !DILexicalBlock(scope: !1121, file: !5, line: 143, column: 3)
!1125 = !DILocation(line: 143, column: 19, scope: !1124)
!1126 = !DILocation(line: 143, column: 17, scope: !1124)
!1127 = !DILocation(line: 143, column: 3, scope: !1121)
!1128 = !DILocation(line: 144, column: 12, scope: !1129)
!1129 = distinct !DILexicalBlock(scope: !1124, file: !5, line: 144, column: 5)
!1130 = !DILocation(line: 144, column: 10, scope: !1129)
!1131 = !DILocation(line: 144, column: 17, scope: !1132)
!1132 = distinct !DILexicalBlock(scope: !1129, file: !5, line: 144, column: 5)
!1133 = !DILocation(line: 144, column: 21, scope: !1132)
!1134 = !DILocation(line: 144, column: 19, scope: !1132)
!1135 = !DILocation(line: 144, column: 5, scope: !1129)
!1136 = !DILocation(line: 145, column: 15, scope: !1137)
!1137 = distinct !DILexicalBlock(scope: !1132, file: !5, line: 144, column: 29)
!1138 = !DILocation(line: 145, column: 34, scope: !1137)
!1139 = !DILocation(line: 145, column: 36, scope: !1137)
!1140 = !DILocation(line: 145, column: 38, scope: !1137)
!1141 = !DILocation(line: 145, column: 37, scope: !1137)
!1142 = !DILocation(line: 145, column: 40, scope: !1137)
!1143 = !DILocation(line: 145, column: 39, scope: !1137)
!1144 = !DILocation(line: 145, column: 7, scope: !1137)
!1145 = !DILocation(line: 146, column: 12, scope: !1146)
!1146 = distinct !DILexicalBlock(scope: !1137, file: !5, line: 146, column: 11)
!1147 = !DILocation(line: 146, column: 16, scope: !1146)
!1148 = !DILocation(line: 146, column: 14, scope: !1146)
!1149 = !DILocation(line: 146, column: 20, scope: !1146)
!1150 = !DILocation(line: 146, column: 18, scope: !1146)
!1151 = !DILocation(line: 146, column: 23, scope: !1146)
!1152 = !DILocation(line: 146, column: 28, scope: !1146)
!1153 = !DILocation(line: 146, column: 11, scope: !1137)
!1154 = !DILocation(line: 146, column: 42, scope: !1146)
!1155 = !DILocation(line: 146, column: 34, scope: !1146)
!1156 = !DILocation(line: 147, column: 5, scope: !1137)
!1157 = !DILocation(line: 144, column: 25, scope: !1132)
!1158 = !DILocation(line: 144, column: 5, scope: !1132)
!1159 = distinct !{!1159, !1135, !1160}
!1160 = !DILocation(line: 147, column: 5, scope: !1129)
!1161 = !DILocation(line: 143, column: 23, scope: !1124)
!1162 = !DILocation(line: 143, column: 3, scope: !1124)
!1163 = distinct !{!1163, !1127, !1164}
!1164 = !DILocation(line: 147, column: 5, scope: !1121)
!1165 = !DILocation(line: 148, column: 11, scope: !1109)
!1166 = !DILocation(line: 148, column: 3, scope: !1109)
!1167 = !DILocation(line: 149, column: 1, scope: !1109)
!1168 = distinct !DISubprogram(name: "cudaMalloc<double>", linkageName: "_ZL10cudaMallocIdE9cudaErrorPPT_m", scope: !1169, file: !1169, line: 490, type: !1170, scopeLine: 494, flags: DIFlagPrototyped, spFlags: DISPFlagLocalToUnit | DISPFlagDefinition, unit: !4, templateParams: !1174, retainedNodes: !695)
!1169 = !DIFile(filename: "/usr/local/cuda/include/cuda_runtime.h", directory: "")
!1170 = !DISubroutineType(types: !1171)
!1171 = !{!1172, !1173, !391}
!1172 = !DIDerivedType(tag: DW_TAG_typedef, name: "cudaError_t", file: !8, line: 1419, baseType: !16)
!1173 = !DIDerivedType(tag: DW_TAG_pointer_type, baseType: !99, size: 64)
!1174 = !{!1175}
!1175 = !DITemplateTypeParameter(name: "T", type: !100)
!1176 = !DILocalVariable(name: "devPtr", arg: 1, scope: !1168, file: !1169, line: 491, type: !1173)
!1177 = !DILocation(line: 491, column: 12, scope: !1168)
!1178 = !DILocalVariable(name: "size", arg: 2, scope: !1168, file: !1169, line: 492, type: !391)
!1179 = !DILocation(line: 492, column: 12, scope: !1168)
!1180 = !DILocation(line: 495, column: 38, scope: !1168)
!1181 = !DILocation(line: 495, column: 23, scope: !1168)
!1182 = !DILocation(line: 495, column: 46, scope: !1168)
!1183 = !DILocation(line: 495, column: 10, scope: !1168)
!1184 = !DILocation(line: 495, column: 3, scope: !1168)
!1185 = distinct !DISubprogram(name: "num_blocks", linkageName: "_ZL10num_blocksii", scope: !5, file: !5, line: 60, type: !1186, scopeLine: 60, flags: DIFlagPrototyped, spFlags: DISPFlagLocalToUnit | DISPFlagDefinition, unit: !4, retainedNodes: !695)
!1186 = !DISubroutineType(types: !1187)
!1187 = !{!9, !110, !110}
!1188 = !DILocalVariable(name: "num", arg: 1, scope: !1185, file: !5, line: 60, type: !110)
!1189 = !DILocation(line: 60, column: 32, scope: !1185)
!1190 = !DILocalVariable(name: "factor", arg: 2, scope: !1185, file: !5, line: 60, type: !110)
!1191 = !DILocation(line: 60, column: 41, scope: !1185)
!1192 = !DILocation(line: 61, column: 11, scope: !1185)
!1193 = !DILocation(line: 61, column: 17, scope: !1185)
!1194 = !DILocation(line: 61, column: 15, scope: !1185)
!1195 = !DILocation(line: 61, column: 24, scope: !1185)
!1196 = !DILocation(line: 61, column: 31, scope: !1185)
!1197 = !DILocation(line: 61, column: 29, scope: !1185)
!1198 = !DILocation(line: 61, column: 3, scope: !1185)
!1199 = distinct !DISubprogram(name: "dim3", linkageName: "_ZN4dim3C2Ejjj", scope: !1201, file: !1200, line: 421, type: !1207, scopeLine: 421, flags: DIFlagPrototyped, spFlags: DISPFlagDefinition, unit: !4, declaration: !1206, retainedNodes: !695)
!1200 = !DIFile(filename: "/usr/local/cuda/include/vector_types.h", directory: "")
!1201 = distinct !DICompositeType(tag: DW_TAG_structure_type, name: "dim3", file: !1200, line: 417, size: 96, flags: DIFlagTypePassByValue | DIFlagNonTrivial, elements: !1202, identifier: "_ZTS4dim3")
!1202 = !{!1203, !1204, !1205, !1206, !1210, !1219}
!1203 = !DIDerivedType(tag: DW_TAG_member, name: "x", scope: !1201, file: !1200, line: 419, baseType: !9, size: 32)
!1204 = !DIDerivedType(tag: DW_TAG_member, name: "y", scope: !1201, file: !1200, line: 419, baseType: !9, size: 32, offset: 32)
!1205 = !DIDerivedType(tag: DW_TAG_member, name: "z", scope: !1201, file: !1200, line: 419, baseType: !9, size: 32, offset: 64)
!1206 = !DISubprogram(name: "dim3", scope: !1201, file: !1200, line: 421, type: !1207, scopeLine: 421, flags: DIFlagPrototyped, spFlags: 0)
!1207 = !DISubroutineType(types: !1208)
!1208 = !{null, !1209, !9, !9, !9}
!1209 = !DIDerivedType(tag: DW_TAG_pointer_type, baseType: !1201, size: 64, flags: DIFlagArtificial | DIFlagObjectPointer)
!1210 = !DISubprogram(name: "dim3", scope: !1201, file: !1200, line: 422, type: !1211, scopeLine: 422, flags: DIFlagPrototyped, spFlags: 0)
!1211 = !DISubroutineType(types: !1212)
!1212 = !{null, !1209, !1213}
!1213 = !DIDerivedType(tag: DW_TAG_typedef, name: "uint3", file: !1200, line: 383, baseType: !1214)
!1214 = distinct !DICompositeType(tag: DW_TAG_structure_type, name: "uint3", file: !1200, line: 190, size: 96, flags: DIFlagTypePassByValue, elements: !1215, identifier: "_ZTS5uint3")
!1215 = !{!1216, !1217, !1218}
!1216 = !DIDerivedType(tag: DW_TAG_member, name: "x", scope: !1214, file: !1200, line: 192, baseType: !9, size: 32)
!1217 = !DIDerivedType(tag: DW_TAG_member, name: "y", scope: !1214, file: !1200, line: 192, baseType: !9, size: 32, offset: 32)
!1218 = !DIDerivedType(tag: DW_TAG_member, name: "z", scope: !1214, file: !1200, line: 192, baseType: !9, size: 32, offset: 64)
!1219 = !DISubprogram(name: "operator uint3", linkageName: "_ZN4dim3cv5uint3Ev", scope: !1201, file: !1200, line: 423, type: !1220, scopeLine: 423, flags: DIFlagPrototyped, spFlags: 0)
!1220 = !DISubroutineType(types: !1221)
!1221 = !{!1213, !1209}
!1222 = !DILocalVariable(name: "this", arg: 1, scope: !1199, type: !1223, flags: DIFlagArtificial | DIFlagObjectPointer)
!1223 = !DIDerivedType(tag: DW_TAG_pointer_type, baseType: !1201, size: 64)
!1224 = !DILocation(line: 0, scope: !1199)
!1225 = !DILocalVariable(name: "vx", arg: 2, scope: !1199, file: !1200, line: 421, type: !9)
!1226 = !DILocation(line: 421, column: 43, scope: !1199)
!1227 = !DILocalVariable(name: "vy", arg: 3, scope: !1199, file: !1200, line: 421, type: !9)
!1228 = !DILocation(line: 421, column: 64, scope: !1199)
!1229 = !DILocalVariable(name: "vz", arg: 4, scope: !1199, file: !1200, line: 421, type: !9)
!1230 = !DILocation(line: 421, column: 85, scope: !1199)
!1231 = !DILocation(line: 421, column: 95, scope: !1199)
!1232 = !DILocation(line: 421, column: 97, scope: !1199)
!1233 = !DILocation(line: 421, column: 102, scope: !1199)
!1234 = !DILocation(line: 421, column: 104, scope: !1199)
!1235 = !DILocation(line: 421, column: 109, scope: !1199)
!1236 = !DILocation(line: 421, column: 111, scope: !1199)
!1237 = !DILocation(line: 421, column: 116, scope: !1199)
