; ModuleID = '3mm.cu'
source_filename = "3mm.cu"
target datalayout = "e-m:e-i64:64-f80:128-n8:16:32:64-S128"
target triple = "x86_64-unknown-linux-gnu"

%struct._IO_FILE = type { i32, i8*, i8*, i8*, i8*, i8*, i8*, i8*, i8*, i8*, i8*, i8*, %struct._IO_marker*, %struct._IO_FILE*, i32, i32, i64, i16, i8, [1 x i8], i8*, i64, %struct._IO_codecvt*, %struct._IO_wide_data*, %struct._IO_FILE*, i8*, i64, i32, [20 x i8] }
%struct._IO_marker = type opaque
%struct._IO_codecvt = type opaque
%struct._IO_wide_data = type opaque
%struct.dim3 = type { i32, i32, i32 }
%struct.CUstream_st = type opaque

$_ZN4dim3C2Ejjj = comdat any

@stderr = external dso_local global %struct._IO_FILE*, align 8
@.str = private unnamed_addr constant [8 x i8] c"%0.2lf \00", align 1
@.str.1 = private unnamed_addr constant [2 x i8] c"\0A\00", align 1

; Function Attrs: noinline uwtable
define dso_local void @_Z14kernel_A_mul_BiiiPdS_S_(i32 %ni, i32 %nj, i32 %nk, double* %C, double* %A, double* %B) #0 !dbg !692 {
entry:
  %ni.addr = alloca i32, align 4
  %nj.addr = alloca i32, align 4
  %nk.addr = alloca i32, align 4
  %C.addr = alloca double*, align 8
  %A.addr = alloca double*, align 8
  %B.addr = alloca double*, align 8
  store i32 %ni, i32* %ni.addr, align 4
  call void @llvm.dbg.declare(metadata i32* %ni.addr, metadata !696, metadata !DIExpression()), !dbg !697
  store i32 %nj, i32* %nj.addr, align 4
  call void @llvm.dbg.declare(metadata i32* %nj.addr, metadata !698, metadata !DIExpression()), !dbg !699
  store i32 %nk, i32* %nk.addr, align 4
  call void @llvm.dbg.declare(metadata i32* %nk.addr, metadata !700, metadata !DIExpression()), !dbg !701
  store double* %C, double** %C.addr, align 8
  call void @llvm.dbg.declare(metadata double** %C.addr, metadata !702, metadata !DIExpression()), !dbg !703
  store double* %A, double** %A.addr, align 8
  call void @llvm.dbg.declare(metadata double** %A.addr, metadata !704, metadata !DIExpression()), !dbg !705
  store double* %B, double** %B.addr, align 8
  call void @llvm.dbg.declare(metadata double** %B.addr, metadata !706, metadata !DIExpression()), !dbg !707
  %0 = bitcast i32* %ni.addr to i8*, !dbg !708
  %1 = call i32 @cudaSetupArgument(i8* %0, i64 4, i64 0), !dbg !708
  %2 = icmp eq i32 %1, 0, !dbg !708
  br i1 %2, label %setup.next, label %setup.end, !dbg !708

setup.next:                                       ; preds = %entry
  %3 = bitcast i32* %nj.addr to i8*, !dbg !708
  %4 = call i32 @cudaSetupArgument(i8* %3, i64 4, i64 4), !dbg !708
  %5 = icmp eq i32 %4, 0, !dbg !708
  br i1 %5, label %setup.next1, label %setup.end, !dbg !708

setup.next1:                                      ; preds = %setup.next
  %6 = bitcast i32* %nk.addr to i8*, !dbg !708
  %7 = call i32 @cudaSetupArgument(i8* %6, i64 4, i64 8), !dbg !708
  %8 = icmp eq i32 %7, 0, !dbg !708
  br i1 %8, label %setup.next2, label %setup.end, !dbg !708

setup.next2:                                      ; preds = %setup.next1
  %9 = bitcast double** %C.addr to i8*, !dbg !708
  %10 = call i32 @cudaSetupArgument(i8* %9, i64 8, i64 16), !dbg !708
  %11 = icmp eq i32 %10, 0, !dbg !708
  br i1 %11, label %setup.next3, label %setup.end, !dbg !708

setup.next3:                                      ; preds = %setup.next2
  %12 = bitcast double** %A.addr to i8*, !dbg !708
  %13 = call i32 @cudaSetupArgument(i8* %12, i64 8, i64 24), !dbg !708
  %14 = icmp eq i32 %13, 0, !dbg !708
  br i1 %14, label %setup.next4, label %setup.end, !dbg !708

setup.next4:                                      ; preds = %setup.next3
  %15 = bitcast double** %B.addr to i8*, !dbg !708
  %16 = call i32 @cudaSetupArgument(i8* %15, i64 8, i64 32), !dbg !708
  %17 = icmp eq i32 %16, 0, !dbg !708
  br i1 %17, label %setup.next5, label %setup.end, !dbg !708

setup.next5:                                      ; preds = %setup.next4
  %18 = call i32 @cudaLaunch(i8* bitcast (void (i32, i32, i32, double*, double*, double*)* @_Z14kernel_A_mul_BiiiPdS_S_ to i8*)), !dbg !708
  br label %setup.end, !dbg !708

setup.end:                                        ; preds = %setup.next5, %setup.next4, %setup.next3, %setup.next2, %setup.next1, %setup.next, %entry
  ret void, !dbg !709
}

; Function Attrs: nounwind readnone speculatable
declare void @llvm.dbg.declare(metadata, metadata, metadata) #1

declare dso_local i32 @cudaSetupArgument(i8*, i64, i64)

declare dso_local i32 @cudaLaunch(i8*)

; Function Attrs: noinline norecurse uwtable
define dso_local i32 @main(i32 %argc, i8** %argv) #2 !dbg !710 {
entry:
  %retval = alloca i32, align 4
  %argc.addr = alloca i32, align 4
  %argv.addr = alloca i8**, align 8
  %dump_code = alloca i32, align 4
  %ni = alloca i32, align 4
  %nj = alloca i32, align 4
  %nk = alloca i32, align 4
  %nl = alloca i32, align 4
  %nm = alloca i32, align 4
  %A = alloca double*, align 8
  %B = alloca double*, align 8
  %C = alloca double*, align 8
  %D = alloca double*, align 8
  %E = alloca double*, align 8
  %F = alloca double*, align 8
  %G = alloca double*, align 8
  %dev_A = alloca double*, align 8
  %dev_B = alloca double*, align 8
  %dev_C = alloca double*, align 8
  %dev_D = alloca double*, align 8
  %dev_E = alloca double*, align 8
  %dev_F = alloca double*, align 8
  %dev_G = alloca double*, align 8
  store i32 0, i32* %retval, align 4
  store i32 %argc, i32* %argc.addr, align 4
  call void @llvm.dbg.declare(metadata i32* %argc.addr, metadata !713, metadata !DIExpression()), !dbg !714
  store i8** %argv, i8*** %argv.addr, align 8
  call void @llvm.dbg.declare(metadata i8*** %argv.addr, metadata !715, metadata !DIExpression()), !dbg !716
  call void @llvm.dbg.declare(metadata i32* %dump_code, metadata !717, metadata !DIExpression()), !dbg !718
  %0 = load i8**, i8*** %argv.addr, align 8, !dbg !719
  %arrayidx = getelementptr inbounds i8*, i8** %0, i64 1, !dbg !719
  %1 = load i8*, i8** %arrayidx, align 8, !dbg !719
  %call = call i32 @atoi(i8* %1) #8, !dbg !720
  store i32 %call, i32* %dump_code, align 4, !dbg !718
  call void @llvm.dbg.declare(metadata i32* %ni, metadata !721, metadata !DIExpression()), !dbg !722
  %2 = load i8**, i8*** %argv.addr, align 8, !dbg !723
  %arrayidx1 = getelementptr inbounds i8*, i8** %2, i64 2, !dbg !723
  %3 = load i8*, i8** %arrayidx1, align 8, !dbg !723
  %call2 = call i32 @atoi(i8* %3) #8, !dbg !724
  store i32 %call2, i32* %ni, align 4, !dbg !722
  call void @llvm.dbg.declare(metadata i32* %nj, metadata !725, metadata !DIExpression()), !dbg !726
  %4 = load i8**, i8*** %argv.addr, align 8, !dbg !727
  %arrayidx3 = getelementptr inbounds i8*, i8** %4, i64 3, !dbg !727
  %5 = load i8*, i8** %arrayidx3, align 8, !dbg !727
  %call4 = call i32 @atoi(i8* %5) #8, !dbg !728
  store i32 %call4, i32* %nj, align 4, !dbg !726
  call void @llvm.dbg.declare(metadata i32* %nk, metadata !729, metadata !DIExpression()), !dbg !730
  %6 = load i8**, i8*** %argv.addr, align 8, !dbg !731
  %arrayidx5 = getelementptr inbounds i8*, i8** %6, i64 4, !dbg !731
  %7 = load i8*, i8** %arrayidx5, align 8, !dbg !731
  %call6 = call i32 @atoi(i8* %7) #8, !dbg !732
  store i32 %call6, i32* %nk, align 4, !dbg !730
  call void @llvm.dbg.declare(metadata i32* %nl, metadata !733, metadata !DIExpression()), !dbg !734
  %8 = load i8**, i8*** %argv.addr, align 8, !dbg !735
  %arrayidx7 = getelementptr inbounds i8*, i8** %8, i64 5, !dbg !735
  %9 = load i8*, i8** %arrayidx7, align 8, !dbg !735
  %call8 = call i32 @atoi(i8* %9) #8, !dbg !736
  store i32 %call8, i32* %nl, align 4, !dbg !734
  call void @llvm.dbg.declare(metadata i32* %nm, metadata !737, metadata !DIExpression()), !dbg !738
  %10 = load i8**, i8*** %argv.addr, align 8, !dbg !739
  %arrayidx9 = getelementptr inbounds i8*, i8** %10, i64 6, !dbg !739
  %11 = load i8*, i8** %arrayidx9, align 8, !dbg !739
  %call10 = call i32 @atoi(i8* %11) #8, !dbg !740
  store i32 %call10, i32* %nm, align 4, !dbg !738
  call void @llvm.dbg.declare(metadata double** %A, metadata !741, metadata !DIExpression()), !dbg !742
  %12 = load i32, i32* %ni, align 4, !dbg !743
  %13 = load i32, i32* %nk, align 4, !dbg !744
  %mul = mul nsw i32 %12, %13, !dbg !745
  %conv = sext i32 %mul to i64, !dbg !743
  %mul11 = mul i64 %conv, 8, !dbg !746
  %call12 = call noalias i8* @malloc(i64 %mul11) #9, !dbg !747
  %14 = bitcast i8* %call12 to double*, !dbg !748
  store double* %14, double** %A, align 8, !dbg !742
  call void @llvm.dbg.declare(metadata double** %B, metadata !749, metadata !DIExpression()), !dbg !750
  %15 = load i32, i32* %nk, align 4, !dbg !751
  %16 = load i32, i32* %nj, align 4, !dbg !752
  %mul13 = mul nsw i32 %15, %16, !dbg !753
  %conv14 = sext i32 %mul13 to i64, !dbg !751
  %mul15 = mul i64 %conv14, 8, !dbg !754
  %call16 = call noalias i8* @malloc(i64 %mul15) #9, !dbg !755
  %17 = bitcast i8* %call16 to double*, !dbg !756
  store double* %17, double** %B, align 8, !dbg !750
  call void @llvm.dbg.declare(metadata double** %C, metadata !757, metadata !DIExpression()), !dbg !758
  %18 = load i32, i32* %nj, align 4, !dbg !759
  %19 = load i32, i32* %nm, align 4, !dbg !760
  %mul17 = mul nsw i32 %18, %19, !dbg !761
  %conv18 = sext i32 %mul17 to i64, !dbg !759
  %mul19 = mul i64 %conv18, 8, !dbg !762
  %call20 = call noalias i8* @malloc(i64 %mul19) #9, !dbg !763
  %20 = bitcast i8* %call20 to double*, !dbg !764
  store double* %20, double** %C, align 8, !dbg !758
  call void @llvm.dbg.declare(metadata double** %D, metadata !765, metadata !DIExpression()), !dbg !766
  %21 = load i32, i32* %nm, align 4, !dbg !767
  %22 = load i32, i32* %nl, align 4, !dbg !768
  %mul21 = mul nsw i32 %21, %22, !dbg !769
  %conv22 = sext i32 %mul21 to i64, !dbg !767
  %mul23 = mul i64 %conv22, 8, !dbg !770
  %call24 = call noalias i8* @malloc(i64 %mul23) #9, !dbg !771
  %23 = bitcast i8* %call24 to double*, !dbg !772
  store double* %23, double** %D, align 8, !dbg !766
  call void @llvm.dbg.declare(metadata double** %E, metadata !773, metadata !DIExpression()), !dbg !774
  %24 = load i32, i32* %ni, align 4, !dbg !775
  %25 = load i32, i32* %nj, align 4, !dbg !776
  %mul25 = mul nsw i32 %24, %25, !dbg !777
  %conv26 = sext i32 %mul25 to i64, !dbg !775
  %mul27 = mul i64 %conv26, 8, !dbg !778
  %call28 = call noalias i8* @malloc(i64 %mul27) #9, !dbg !779
  %26 = bitcast i8* %call28 to double*, !dbg !780
  store double* %26, double** %E, align 8, !dbg !774
  call void @llvm.dbg.declare(metadata double** %F, metadata !781, metadata !DIExpression()), !dbg !782
  %27 = load i32, i32* %nj, align 4, !dbg !783
  %28 = load i32, i32* %nl, align 4, !dbg !784
  %mul29 = mul nsw i32 %27, %28, !dbg !785
  %conv30 = sext i32 %mul29 to i64, !dbg !783
  %mul31 = mul i64 %conv30, 8, !dbg !786
  %call32 = call noalias i8* @malloc(i64 %mul31) #9, !dbg !787
  %29 = bitcast i8* %call32 to double*, !dbg !788
  store double* %29, double** %F, align 8, !dbg !782
  call void @llvm.dbg.declare(metadata double** %G, metadata !789, metadata !DIExpression()), !dbg !790
  %30 = load i32, i32* %ni, align 4, !dbg !791
  %31 = load i32, i32* %nl, align 4, !dbg !792
  %mul33 = mul nsw i32 %30, %31, !dbg !793
  %conv34 = sext i32 %mul33 to i64, !dbg !791
  %mul35 = mul i64 %conv34, 8, !dbg !794
  %call36 = call noalias i8* @malloc(i64 %mul35) #9, !dbg !795
  %32 = bitcast i8* %call36 to double*, !dbg !796
  store double* %32, double** %G, align 8, !dbg !790
  %33 = load i32, i32* %ni, align 4, !dbg !797
  %34 = load i32, i32* %nj, align 4, !dbg !798
  %35 = load i32, i32* %nk, align 4, !dbg !799
  %36 = load i32, i32* %nl, align 4, !dbg !800
  %37 = load i32, i32* %nm, align 4, !dbg !801
  %38 = load double*, double** %A, align 8, !dbg !802
  %39 = load double*, double** %B, align 8, !dbg !803
  %40 = load double*, double** %C, align 8, !dbg !804
  %41 = load double*, double** %D, align 8, !dbg !805
  %42 = load double*, double** %E, align 8, !dbg !806
  %43 = load double*, double** %F, align 8, !dbg !807
  %44 = load double*, double** %G, align 8, !dbg !808
  call void @_ZL10init_arrayiiiiiPdS_S_S_S_S_S_(i32 %33, i32 %34, i32 %35, i32 %36, i32 %37, double* %38, double* %39, double* %40, double* %41, double* %42, double* %43, double* %44), !dbg !809
  call void @llvm.dbg.declare(metadata double** %dev_A, metadata !810, metadata !DIExpression()), !dbg !811
  call void @llvm.dbg.declare(metadata double** %dev_B, metadata !812, metadata !DIExpression()), !dbg !813
  call void @llvm.dbg.declare(metadata double** %dev_C, metadata !814, metadata !DIExpression()), !dbg !815
  call void @llvm.dbg.declare(metadata double** %dev_D, metadata !816, metadata !DIExpression()), !dbg !817
  call void @llvm.dbg.declare(metadata double** %dev_E, metadata !818, metadata !DIExpression()), !dbg !819
  call void @llvm.dbg.declare(metadata double** %dev_F, metadata !820, metadata !DIExpression()), !dbg !821
  call void @llvm.dbg.declare(metadata double** %dev_G, metadata !822, metadata !DIExpression()), !dbg !823
  %45 = load i32, i32* %ni, align 4, !dbg !824
  %46 = load i32, i32* %nk, align 4, !dbg !825
  %mul37 = mul nsw i32 %45, %46, !dbg !826
  %conv38 = sext i32 %mul37 to i64, !dbg !824
  %mul39 = mul i64 %conv38, 8, !dbg !827
  %call40 = call i32 @_ZL10cudaMallocIdE9cudaErrorPPT_m(double** %dev_A, i64 %mul39), !dbg !828
  %47 = load i32, i32* %nk, align 4, !dbg !829
  %48 = load i32, i32* %nj, align 4, !dbg !830
  %mul41 = mul nsw i32 %47, %48, !dbg !831
  %conv42 = sext i32 %mul41 to i64, !dbg !829
  %mul43 = mul i64 %conv42, 8, !dbg !832
  %call44 = call i32 @_ZL10cudaMallocIdE9cudaErrorPPT_m(double** %dev_B, i64 %mul43), !dbg !833
  %49 = load i32, i32* %nl, align 4, !dbg !834
  %50 = load i32, i32* %nj, align 4, !dbg !835
  %mul45 = mul nsw i32 %49, %50, !dbg !836
  %conv46 = sext i32 %mul45 to i64, !dbg !834
  %mul47 = mul i64 %conv46, 8, !dbg !837
  %call48 = call i32 @_ZL10cudaMallocIdE9cudaErrorPPT_m(double** %dev_C, i64 %mul47), !dbg !838
  %51 = load i32, i32* %ni, align 4, !dbg !839
  %52 = load i32, i32* %nl, align 4, !dbg !840
  %mul49 = mul nsw i32 %51, %52, !dbg !841
  %conv50 = sext i32 %mul49 to i64, !dbg !839
  %mul51 = mul i64 %conv50, 8, !dbg !842
  %call52 = call i32 @_ZL10cudaMallocIdE9cudaErrorPPT_m(double** %dev_D, i64 %mul51), !dbg !843
  %53 = load i32, i32* %ni, align 4, !dbg !844
  %54 = load i32, i32* %nj, align 4, !dbg !845
  %mul53 = mul nsw i32 %53, %54, !dbg !846
  %conv54 = sext i32 %mul53 to i64, !dbg !844
  %mul55 = mul i64 %conv54, 8, !dbg !847
  %call56 = call i32 @_ZL10cudaMallocIdE9cudaErrorPPT_m(double** %dev_E, i64 %mul55), !dbg !848
  %55 = load i32, i32* %nj, align 4, !dbg !849
  %56 = load i32, i32* %nl, align 4, !dbg !850
  %mul57 = mul nsw i32 %55, %56, !dbg !851
  %conv58 = sext i32 %mul57 to i64, !dbg !849
  %mul59 = mul i64 %conv58, 8, !dbg !852
  %call60 = call i32 @_ZL10cudaMallocIdE9cudaErrorPPT_m(double** %dev_F, i64 %mul59), !dbg !853
  %57 = load i32, i32* %ni, align 4, !dbg !854
  %58 = load i32, i32* %nl, align 4, !dbg !855
  %mul61 = mul nsw i32 %57, %58, !dbg !856
  %conv62 = sext i32 %mul61 to i64, !dbg !854
  %mul63 = mul i64 %conv62, 8, !dbg !857
  %call64 = call i32 @_ZL10cudaMallocIdE9cudaErrorPPT_m(double** %dev_G, i64 %mul63), !dbg !858
  %59 = load double*, double** %dev_A, align 8, !dbg !859
  %60 = bitcast double* %59 to i8*, !dbg !859
  %61 = load double*, double** %A, align 8, !dbg !860
  %62 = bitcast double* %61 to i8*, !dbg !860
  %63 = load i32, i32* %ni, align 4, !dbg !861
  %64 = load i32, i32* %nk, align 4, !dbg !862
  %mul65 = mul nsw i32 %63, %64, !dbg !863
  %conv66 = sext i32 %mul65 to i64, !dbg !861
  %mul67 = mul i64 %conv66, 8, !dbg !864
  %call68 = call i32 @cudaMemcpy(i8* %60, i8* %62, i64 %mul67, i32 1), !dbg !865
  %65 = load double*, double** %dev_B, align 8, !dbg !866
  %66 = bitcast double* %65 to i8*, !dbg !866
  %67 = load double*, double** %B, align 8, !dbg !867
  %68 = bitcast double* %67 to i8*, !dbg !867
  %69 = load i32, i32* %nk, align 4, !dbg !868
  %70 = load i32, i32* %nj, align 4, !dbg !869
  %mul69 = mul nsw i32 %69, %70, !dbg !870
  %conv70 = sext i32 %mul69 to i64, !dbg !868
  %mul71 = mul i64 %conv70, 8, !dbg !871
  %call72 = call i32 @cudaMemcpy(i8* %66, i8* %68, i64 %mul71, i32 1), !dbg !872
  %71 = load double*, double** %dev_C, align 8, !dbg !873
  %72 = bitcast double* %71 to i8*, !dbg !873
  %73 = load double*, double** %C, align 8, !dbg !874
  %74 = bitcast double* %73 to i8*, !dbg !874
  %75 = load i32, i32* %nl, align 4, !dbg !875
  %76 = load i32, i32* %nj, align 4, !dbg !876
  %mul73 = mul nsw i32 %75, %76, !dbg !877
  %conv74 = sext i32 %mul73 to i64, !dbg !875
  %mul75 = mul i64 %conv74, 8, !dbg !878
  %call76 = call i32 @cudaMemcpy(i8* %72, i8* %74, i64 %mul75, i32 1), !dbg !879
  %77 = load double*, double** %dev_D, align 8, !dbg !880
  %78 = bitcast double* %77 to i8*, !dbg !880
  %79 = load double*, double** %D, align 8, !dbg !881
  %80 = bitcast double* %79 to i8*, !dbg !881
  %81 = load i32, i32* %ni, align 4, !dbg !882
  %82 = load i32, i32* %nl, align 4, !dbg !883
  %mul77 = mul nsw i32 %81, %82, !dbg !884
  %conv78 = sext i32 %mul77 to i64, !dbg !882
  %mul79 = mul i64 %conv78, 8, !dbg !885
  %call80 = call i32 @cudaMemcpy(i8* %78, i8* %80, i64 %mul79, i32 1), !dbg !886
  %83 = load double*, double** %dev_E, align 8, !dbg !887
  %84 = bitcast double* %83 to i8*, !dbg !887
  %85 = load double*, double** %E, align 8, !dbg !888
  %86 = bitcast double* %85 to i8*, !dbg !888
  %87 = load i32, i32* %ni, align 4, !dbg !889
  %88 = load i32, i32* %nj, align 4, !dbg !890
  %mul81 = mul nsw i32 %87, %88, !dbg !891
  %conv82 = sext i32 %mul81 to i64, !dbg !889
  %mul83 = mul i64 %conv82, 8, !dbg !892
  %call84 = call i32 @cudaMemcpy(i8* %84, i8* %86, i64 %mul83, i32 1), !dbg !893
  %89 = load double*, double** %dev_F, align 8, !dbg !894
  %90 = bitcast double* %89 to i8*, !dbg !894
  %91 = load double*, double** %F, align 8, !dbg !895
  %92 = bitcast double* %91 to i8*, !dbg !895
  %93 = load i32, i32* %nj, align 4, !dbg !896
  %94 = load i32, i32* %nl, align 4, !dbg !897
  %mul85 = mul nsw i32 %93, %94, !dbg !898
  %conv86 = sext i32 %mul85 to i64, !dbg !896
  %mul87 = mul i64 %conv86, 8, !dbg !899
  %call88 = call i32 @cudaMemcpy(i8* %90, i8* %92, i64 %mul87, i32 1), !dbg !900
  %95 = load double*, double** %dev_G, align 8, !dbg !901
  %96 = bitcast double* %95 to i8*, !dbg !901
  %97 = load double*, double** %G, align 8, !dbg !902
  %98 = bitcast double* %97 to i8*, !dbg !902
  %99 = load i32, i32* %ni, align 4, !dbg !903
  %100 = load i32, i32* %nl, align 4, !dbg !904
  %mul89 = mul nsw i32 %99, %100, !dbg !905
  %conv90 = sext i32 %mul89 to i64, !dbg !903
  %mul91 = mul i64 %conv90, 8, !dbg !906
  %call92 = call i32 @cudaMemcpy(i8* %96, i8* %98, i64 %mul91, i32 1), !dbg !907
  %101 = load i32, i32* %ni, align 4, !dbg !908
  %102 = load i32, i32* %nj, align 4, !dbg !909
  %103 = load i32, i32* %nk, align 4, !dbg !910
  %104 = load i32, i32* %nl, align 4, !dbg !911
  %105 = load i32, i32* %nm, align 4, !dbg !912
  %106 = load double*, double** %dev_E, align 8, !dbg !913
  %107 = load double*, double** %dev_A, align 8, !dbg !914
  %108 = load double*, double** %dev_B, align 8, !dbg !915
  %109 = load double*, double** %dev_F, align 8, !dbg !916
  %110 = load double*, double** %dev_C, align 8, !dbg !917
  %111 = load double*, double** %dev_D, align 8, !dbg !918
  %112 = load double*, double** %dev_G, align 8, !dbg !919
  call void @_ZL6kerneliiiiiPdS_S_S_S_S_S_(i32 %101, i32 %102, i32 %103, i32 %104, i32 %105, double* %106, double* %107, double* %108, double* %109, double* %110, double* %111, double* %112), !dbg !920
  %113 = load double*, double** %G, align 8, !dbg !921
  %114 = bitcast double* %113 to i8*, !dbg !921
  %115 = load double*, double** %dev_G, align 8, !dbg !922
  %116 = bitcast double* %115 to i8*, !dbg !922
  %117 = load i32, i32* %ni, align 4, !dbg !923
  %118 = load i32, i32* %nl, align 4, !dbg !924
  %mul93 = mul nsw i32 %117, %118, !dbg !925
  %conv94 = sext i32 %mul93 to i64, !dbg !923
  %mul95 = mul i64 %conv94, 8, !dbg !926
  %call96 = call i32 @cudaMemcpy(i8* %114, i8* %116, i64 %mul95, i32 2), !dbg !927
  %119 = load i32, i32* %dump_code, align 4, !dbg !928
  %cmp = icmp eq i32 %119, 1, !dbg !930
  br i1 %cmp, label %if.then, label %if.end, !dbg !931

if.then:                                          ; preds = %entry
  %120 = load i32, i32* %ni, align 4, !dbg !932
  %121 = load i32, i32* %nl, align 4, !dbg !933
  %122 = load double*, double** %G, align 8, !dbg !934
  call void @_ZL11print_arrayiiPd(i32 %120, i32 %121, double* %122), !dbg !935
  br label %if.end, !dbg !935

if.end:                                           ; preds = %if.then, %entry
  %123 = load double*, double** %E, align 8, !dbg !936
  %124 = bitcast double* %123 to i8*, !dbg !936
  call void @free(i8* %124) #9, !dbg !937
  %125 = load double*, double** %A, align 8, !dbg !938
  %126 = bitcast double* %125 to i8*, !dbg !938
  call void @free(i8* %126) #9, !dbg !939
  %127 = load double*, double** %B, align 8, !dbg !940
  %128 = bitcast double* %127 to i8*, !dbg !940
  call void @free(i8* %128) #9, !dbg !941
  %129 = load double*, double** %F, align 8, !dbg !942
  %130 = bitcast double* %129 to i8*, !dbg !942
  call void @free(i8* %130) #9, !dbg !943
  %131 = load double*, double** %C, align 8, !dbg !944
  %132 = bitcast double* %131 to i8*, !dbg !944
  call void @free(i8* %132) #9, !dbg !945
  %133 = load double*, double** %D, align 8, !dbg !946
  %134 = bitcast double* %133 to i8*, !dbg !946
  call void @free(i8* %134) #9, !dbg !947
  %135 = load double*, double** %G, align 8, !dbg !948
  %136 = bitcast double* %135 to i8*, !dbg !948
  call void @free(i8* %136) #9, !dbg !949
  ret i32 0, !dbg !950
}

; Function Attrs: nounwind readonly
declare dso_local i32 @atoi(i8*) #3

; Function Attrs: nounwind
declare dso_local noalias i8* @malloc(i64) #4

; Function Attrs: noinline nounwind uwtable
define internal void @_ZL10init_arrayiiiiiPdS_S_S_S_S_S_(i32 %ni, i32 %nj, i32 %nk, i32 %nl, i32 %nm, double* %A, double* %B, double* %C, double* %D, double* %E, double* %F, double* %G) #5 !dbg !951 {
entry:
  %ni.addr = alloca i32, align 4
  %nj.addr = alloca i32, align 4
  %nk.addr = alloca i32, align 4
  %nl.addr = alloca i32, align 4
  %nm.addr = alloca i32, align 4
  %A.addr = alloca double*, align 8
  %B.addr = alloca double*, align 8
  %C.addr = alloca double*, align 8
  %D.addr = alloca double*, align 8
  %E.addr = alloca double*, align 8
  %F.addr = alloca double*, align 8
  %G.addr = alloca double*, align 8
  %i = alloca i32, align 4
  %j = alloca i32, align 4
  store i32 %ni, i32* %ni.addr, align 4
  call void @llvm.dbg.declare(metadata i32* %ni.addr, metadata !954, metadata !DIExpression()), !dbg !955
  store i32 %nj, i32* %nj.addr, align 4
  call void @llvm.dbg.declare(metadata i32* %nj.addr, metadata !956, metadata !DIExpression()), !dbg !957
  store i32 %nk, i32* %nk.addr, align 4
  call void @llvm.dbg.declare(metadata i32* %nk.addr, metadata !958, metadata !DIExpression()), !dbg !959
  store i32 %nl, i32* %nl.addr, align 4
  call void @llvm.dbg.declare(metadata i32* %nl.addr, metadata !960, metadata !DIExpression()), !dbg !961
  store i32 %nm, i32* %nm.addr, align 4
  call void @llvm.dbg.declare(metadata i32* %nm.addr, metadata !962, metadata !DIExpression()), !dbg !963
  store double* %A, double** %A.addr, align 8
  call void @llvm.dbg.declare(metadata double** %A.addr, metadata !964, metadata !DIExpression()), !dbg !965
  store double* %B, double** %B.addr, align 8
  call void @llvm.dbg.declare(metadata double** %B.addr, metadata !966, metadata !DIExpression()), !dbg !967
  store double* %C, double** %C.addr, align 8
  call void @llvm.dbg.declare(metadata double** %C.addr, metadata !968, metadata !DIExpression()), !dbg !969
  store double* %D, double** %D.addr, align 8
  call void @llvm.dbg.declare(metadata double** %D.addr, metadata !970, metadata !DIExpression()), !dbg !971
  store double* %E, double** %E.addr, align 8
  call void @llvm.dbg.declare(metadata double** %E.addr, metadata !972, metadata !DIExpression()), !dbg !973
  store double* %F, double** %F.addr, align 8
  call void @llvm.dbg.declare(metadata double** %F.addr, metadata !974, metadata !DIExpression()), !dbg !975
  store double* %G, double** %G.addr, align 8
  call void @llvm.dbg.declare(metadata double** %G.addr, metadata !976, metadata !DIExpression()), !dbg !977
  call void @llvm.dbg.declare(metadata i32* %i, metadata !978, metadata !DIExpression()), !dbg !979
  call void @llvm.dbg.declare(metadata i32* %j, metadata !980, metadata !DIExpression()), !dbg !981
  store i32 0, i32* %i, align 4, !dbg !982
  br label %for.cond, !dbg !984

for.cond:                                         ; preds = %for.inc7, %entry
  %0 = load i32, i32* %i, align 4, !dbg !985
  %1 = load i32, i32* %ni.addr, align 4, !dbg !987
  %cmp = icmp slt i32 %0, %1, !dbg !988
  br i1 %cmp, label %for.body, label %for.end9, !dbg !989

for.body:                                         ; preds = %for.cond
  store i32 0, i32* %j, align 4, !dbg !990
  br label %for.cond1, !dbg !992

for.cond1:                                        ; preds = %for.inc, %for.body
  %2 = load i32, i32* %j, align 4, !dbg !993
  %3 = load i32, i32* %nk.addr, align 4, !dbg !995
  %cmp2 = icmp slt i32 %2, %3, !dbg !996
  br i1 %cmp2, label %for.body3, label %for.end, !dbg !997

for.body3:                                        ; preds = %for.cond1
  %4 = load i32, i32* %i, align 4, !dbg !998
  %conv = sitofp i32 %4 to double, !dbg !998
  %5 = load i32, i32* %j, align 4, !dbg !999
  %conv4 = sitofp i32 %5 to double, !dbg !999
  %mul = fmul contract double %conv, %conv4, !dbg !1000
  %6 = load i32, i32* %ni.addr, align 4, !dbg !1001
  %conv5 = sitofp i32 %6 to double, !dbg !1001
  %div = fdiv double %mul, %conv5, !dbg !1002
  %7 = load double*, double** %A.addr, align 8, !dbg !1003
  %8 = load i32, i32* %i, align 4, !dbg !1004
  %9 = load i32, i32* %ni.addr, align 4, !dbg !1005
  %mul6 = mul nsw i32 %8, %9, !dbg !1006
  %10 = load i32, i32* %j, align 4, !dbg !1007
  %add = add nsw i32 %mul6, %10, !dbg !1008
  %idxprom = sext i32 %add to i64, !dbg !1003
  %arrayidx = getelementptr inbounds double, double* %7, i64 %idxprom, !dbg !1003
  store double %div, double* %arrayidx, align 8, !dbg !1009
  br label %for.inc, !dbg !1003

for.inc:                                          ; preds = %for.body3
  %11 = load i32, i32* %j, align 4, !dbg !1010
  %inc = add nsw i32 %11, 1, !dbg !1010
  store i32 %inc, i32* %j, align 4, !dbg !1010
  br label %for.cond1, !dbg !1011, !llvm.loop !1012

for.end:                                          ; preds = %for.cond1
  br label %for.inc7, !dbg !1013

for.inc7:                                         ; preds = %for.end
  %12 = load i32, i32* %i, align 4, !dbg !1014
  %inc8 = add nsw i32 %12, 1, !dbg !1014
  store i32 %inc8, i32* %i, align 4, !dbg !1014
  br label %for.cond, !dbg !1015, !llvm.loop !1016

for.end9:                                         ; preds = %for.cond
  store i32 0, i32* %i, align 4, !dbg !1018
  br label %for.cond10, !dbg !1020

for.cond10:                                       ; preds = %for.inc29, %for.end9
  %13 = load i32, i32* %i, align 4, !dbg !1021
  %14 = load i32, i32* %nk.addr, align 4, !dbg !1023
  %cmp11 = icmp slt i32 %13, %14, !dbg !1024
  br i1 %cmp11, label %for.body12, label %for.end31, !dbg !1025

for.body12:                                       ; preds = %for.cond10
  store i32 0, i32* %j, align 4, !dbg !1026
  br label %for.cond13, !dbg !1028

for.cond13:                                       ; preds = %for.inc26, %for.body12
  %15 = load i32, i32* %j, align 4, !dbg !1029
  %16 = load i32, i32* %nj.addr, align 4, !dbg !1031
  %cmp14 = icmp slt i32 %15, %16, !dbg !1032
  br i1 %cmp14, label %for.body15, label %for.end28, !dbg !1033

for.body15:                                       ; preds = %for.cond13
  %17 = load i32, i32* %i, align 4, !dbg !1034
  %conv16 = sitofp i32 %17 to double, !dbg !1034
  %18 = load i32, i32* %j, align 4, !dbg !1035
  %add17 = add nsw i32 %18, 1, !dbg !1036
  %conv18 = sitofp i32 %add17 to double, !dbg !1037
  %mul19 = fmul contract double %conv16, %conv18, !dbg !1038
  %19 = load i32, i32* %nj.addr, align 4, !dbg !1039
  %conv20 = sitofp i32 %19 to double, !dbg !1039
  %div21 = fdiv double %mul19, %conv20, !dbg !1040
  %20 = load double*, double** %B.addr, align 8, !dbg !1041
  %21 = load i32, i32* %i, align 4, !dbg !1042
  %22 = load i32, i32* %nk.addr, align 4, !dbg !1043
  %mul22 = mul nsw i32 %21, %22, !dbg !1044
  %23 = load i32, i32* %j, align 4, !dbg !1045
  %add23 = add nsw i32 %mul22, %23, !dbg !1046
  %idxprom24 = sext i32 %add23 to i64, !dbg !1041
  %arrayidx25 = getelementptr inbounds double, double* %20, i64 %idxprom24, !dbg !1041
  store double %div21, double* %arrayidx25, align 8, !dbg !1047
  br label %for.inc26, !dbg !1041

for.inc26:                                        ; preds = %for.body15
  %24 = load i32, i32* %j, align 4, !dbg !1048
  %inc27 = add nsw i32 %24, 1, !dbg !1048
  store i32 %inc27, i32* %j, align 4, !dbg !1048
  br label %for.cond13, !dbg !1049, !llvm.loop !1050

for.end28:                                        ; preds = %for.cond13
  br label %for.inc29, !dbg !1051

for.inc29:                                        ; preds = %for.end28
  %25 = load i32, i32* %i, align 4, !dbg !1052
  %inc30 = add nsw i32 %25, 1, !dbg !1052
  store i32 %inc30, i32* %i, align 4, !dbg !1052
  br label %for.cond10, !dbg !1053, !llvm.loop !1054

for.end31:                                        ; preds = %for.cond10
  store i32 0, i32* %i, align 4, !dbg !1056
  br label %for.cond32, !dbg !1058

for.cond32:                                       ; preds = %for.inc51, %for.end31
  %26 = load i32, i32* %i, align 4, !dbg !1059
  %27 = load i32, i32* %nj.addr, align 4, !dbg !1061
  %cmp33 = icmp slt i32 %26, %27, !dbg !1062
  br i1 %cmp33, label %for.body34, label %for.end53, !dbg !1063

for.body34:                                       ; preds = %for.cond32
  store i32 0, i32* %j, align 4, !dbg !1064
  br label %for.cond35, !dbg !1066

for.cond35:                                       ; preds = %for.inc48, %for.body34
  %28 = load i32, i32* %j, align 4, !dbg !1067
  %29 = load i32, i32* %nm.addr, align 4, !dbg !1069
  %cmp36 = icmp slt i32 %28, %29, !dbg !1070
  br i1 %cmp36, label %for.body37, label %for.end50, !dbg !1071

for.body37:                                       ; preds = %for.cond35
  %30 = load i32, i32* %i, align 4, !dbg !1072
  %conv38 = sitofp i32 %30 to double, !dbg !1072
  %31 = load i32, i32* %j, align 4, !dbg !1073
  %add39 = add nsw i32 %31, 3, !dbg !1074
  %conv40 = sitofp i32 %add39 to double, !dbg !1075
  %mul41 = fmul contract double %conv38, %conv40, !dbg !1076
  %32 = load i32, i32* %nl.addr, align 4, !dbg !1077
  %conv42 = sitofp i32 %32 to double, !dbg !1077
  %div43 = fdiv double %mul41, %conv42, !dbg !1078
  %33 = load double*, double** %C.addr, align 8, !dbg !1079
  %34 = load i32, i32* %i, align 4, !dbg !1080
  %35 = load i32, i32* %nj.addr, align 4, !dbg !1081
  %mul44 = mul nsw i32 %34, %35, !dbg !1082
  %36 = load i32, i32* %j, align 4, !dbg !1083
  %add45 = add nsw i32 %mul44, %36, !dbg !1084
  %idxprom46 = sext i32 %add45 to i64, !dbg !1079
  %arrayidx47 = getelementptr inbounds double, double* %33, i64 %idxprom46, !dbg !1079
  store double %div43, double* %arrayidx47, align 8, !dbg !1085
  br label %for.inc48, !dbg !1079

for.inc48:                                        ; preds = %for.body37
  %37 = load i32, i32* %j, align 4, !dbg !1086
  %inc49 = add nsw i32 %37, 1, !dbg !1086
  store i32 %inc49, i32* %j, align 4, !dbg !1086
  br label %for.cond35, !dbg !1087, !llvm.loop !1088

for.end50:                                        ; preds = %for.cond35
  br label %for.inc51, !dbg !1089

for.inc51:                                        ; preds = %for.end50
  %38 = load i32, i32* %i, align 4, !dbg !1090
  %inc52 = add nsw i32 %38, 1, !dbg !1090
  store i32 %inc52, i32* %i, align 4, !dbg !1090
  br label %for.cond32, !dbg !1091, !llvm.loop !1092

for.end53:                                        ; preds = %for.cond32
  store i32 0, i32* %i, align 4, !dbg !1094
  br label %for.cond54, !dbg !1096

for.cond54:                                       ; preds = %for.inc73, %for.end53
  %39 = load i32, i32* %i, align 4, !dbg !1097
  %40 = load i32, i32* %nm.addr, align 4, !dbg !1099
  %cmp55 = icmp slt i32 %39, %40, !dbg !1100
  br i1 %cmp55, label %for.body56, label %for.end75, !dbg !1101

for.body56:                                       ; preds = %for.cond54
  store i32 0, i32* %j, align 4, !dbg !1102
  br label %for.cond57, !dbg !1104

for.cond57:                                       ; preds = %for.inc70, %for.body56
  %41 = load i32, i32* %j, align 4, !dbg !1105
  %42 = load i32, i32* %nl.addr, align 4, !dbg !1107
  %cmp58 = icmp slt i32 %41, %42, !dbg !1108
  br i1 %cmp58, label %for.body59, label %for.end72, !dbg !1109

for.body59:                                       ; preds = %for.cond57
  %43 = load i32, i32* %i, align 4, !dbg !1110
  %conv60 = sitofp i32 %43 to double, !dbg !1110
  %44 = load i32, i32* %j, align 4, !dbg !1111
  %add61 = add nsw i32 %44, 2, !dbg !1112
  %conv62 = sitofp i32 %add61 to double, !dbg !1113
  %mul63 = fmul contract double %conv60, %conv62, !dbg !1114
  %45 = load i32, i32* %nk.addr, align 4, !dbg !1115
  %conv64 = sitofp i32 %45 to double, !dbg !1115
  %div65 = fdiv double %mul63, %conv64, !dbg !1116
  %46 = load double*, double** %D.addr, align 8, !dbg !1117
  %47 = load i32, i32* %i, align 4, !dbg !1118
  %48 = load i32, i32* %nm.addr, align 4, !dbg !1119
  %mul66 = mul nsw i32 %47, %48, !dbg !1120
  %49 = load i32, i32* %j, align 4, !dbg !1121
  %add67 = add nsw i32 %mul66, %49, !dbg !1122
  %idxprom68 = sext i32 %add67 to i64, !dbg !1117
  %arrayidx69 = getelementptr inbounds double, double* %46, i64 %idxprom68, !dbg !1117
  store double %div65, double* %arrayidx69, align 8, !dbg !1123
  br label %for.inc70, !dbg !1117

for.inc70:                                        ; preds = %for.body59
  %50 = load i32, i32* %j, align 4, !dbg !1124
  %inc71 = add nsw i32 %50, 1, !dbg !1124
  store i32 %inc71, i32* %j, align 4, !dbg !1124
  br label %for.cond57, !dbg !1125, !llvm.loop !1126

for.end72:                                        ; preds = %for.cond57
  br label %for.inc73, !dbg !1127

for.inc73:                                        ; preds = %for.end72
  %51 = load i32, i32* %i, align 4, !dbg !1128
  %inc74 = add nsw i32 %51, 1, !dbg !1128
  store i32 %inc74, i32* %i, align 4, !dbg !1128
  br label %for.cond54, !dbg !1129, !llvm.loop !1130

for.end75:                                        ; preds = %for.cond54
  store i32 0, i32* %i, align 4, !dbg !1132
  br label %for.cond76, !dbg !1134

for.cond76:                                       ; preds = %for.inc89, %for.end75
  %52 = load i32, i32* %i, align 4, !dbg !1135
  %53 = load i32, i32* %ni.addr, align 4, !dbg !1137
  %cmp77 = icmp slt i32 %52, %53, !dbg !1138
  br i1 %cmp77, label %for.body78, label %for.end91, !dbg !1139

for.body78:                                       ; preds = %for.cond76
  store i32 0, i32* %j, align 4, !dbg !1140
  br label %for.cond79, !dbg !1142

for.cond79:                                       ; preds = %for.inc86, %for.body78
  %54 = load i32, i32* %j, align 4, !dbg !1143
  %55 = load i32, i32* %nj.addr, align 4, !dbg !1145
  %cmp80 = icmp slt i32 %54, %55, !dbg !1146
  br i1 %cmp80, label %for.body81, label %for.end88, !dbg !1147

for.body81:                                       ; preds = %for.cond79
  %56 = load double*, double** %E.addr, align 8, !dbg !1148
  %57 = load i32, i32* %i, align 4, !dbg !1149
  %58 = load i32, i32* %ni.addr, align 4, !dbg !1150
  %mul82 = mul nsw i32 %57, %58, !dbg !1151
  %59 = load i32, i32* %j, align 4, !dbg !1152
  %add83 = add nsw i32 %mul82, %59, !dbg !1153
  %idxprom84 = sext i32 %add83 to i64, !dbg !1148
  %arrayidx85 = getelementptr inbounds double, double* %56, i64 %idxprom84, !dbg !1148
  store double 0.000000e+00, double* %arrayidx85, align 8, !dbg !1154
  br label %for.inc86, !dbg !1148

for.inc86:                                        ; preds = %for.body81
  %60 = load i32, i32* %j, align 4, !dbg !1155
  %inc87 = add nsw i32 %60, 1, !dbg !1155
  store i32 %inc87, i32* %j, align 4, !dbg !1155
  br label %for.cond79, !dbg !1156, !llvm.loop !1157

for.end88:                                        ; preds = %for.cond79
  br label %for.inc89, !dbg !1158

for.inc89:                                        ; preds = %for.end88
  %61 = load i32, i32* %i, align 4, !dbg !1159
  %inc90 = add nsw i32 %61, 1, !dbg !1159
  store i32 %inc90, i32* %i, align 4, !dbg !1159
  br label %for.cond76, !dbg !1160, !llvm.loop !1161

for.end91:                                        ; preds = %for.cond76
  store i32 0, i32* %i, align 4, !dbg !1163
  br label %for.cond92, !dbg !1165

for.cond92:                                       ; preds = %for.inc105, %for.end91
  %62 = load i32, i32* %i, align 4, !dbg !1166
  %63 = load i32, i32* %nj.addr, align 4, !dbg !1168
  %cmp93 = icmp slt i32 %62, %63, !dbg !1169
  br i1 %cmp93, label %for.body94, label %for.end107, !dbg !1170

for.body94:                                       ; preds = %for.cond92
  store i32 0, i32* %j, align 4, !dbg !1171
  br label %for.cond95, !dbg !1173

for.cond95:                                       ; preds = %for.inc102, %for.body94
  %64 = load i32, i32* %j, align 4, !dbg !1174
  %65 = load i32, i32* %nl.addr, align 4, !dbg !1176
  %cmp96 = icmp slt i32 %64, %65, !dbg !1177
  br i1 %cmp96, label %for.body97, label %for.end104, !dbg !1178

for.body97:                                       ; preds = %for.cond95
  %66 = load double*, double** %F.addr, align 8, !dbg !1179
  %67 = load i32, i32* %i, align 4, !dbg !1180
  %68 = load i32, i32* %nj.addr, align 4, !dbg !1181
  %mul98 = mul nsw i32 %67, %68, !dbg !1182
  %69 = load i32, i32* %j, align 4, !dbg !1183
  %add99 = add nsw i32 %mul98, %69, !dbg !1184
  %idxprom100 = sext i32 %add99 to i64, !dbg !1179
  %arrayidx101 = getelementptr inbounds double, double* %66, i64 %idxprom100, !dbg !1179
  store double 0.000000e+00, double* %arrayidx101, align 8, !dbg !1185
  br label %for.inc102, !dbg !1179

for.inc102:                                       ; preds = %for.body97
  %70 = load i32, i32* %j, align 4, !dbg !1186
  %inc103 = add nsw i32 %70, 1, !dbg !1186
  store i32 %inc103, i32* %j, align 4, !dbg !1186
  br label %for.cond95, !dbg !1187, !llvm.loop !1188

for.end104:                                       ; preds = %for.cond95
  br label %for.inc105, !dbg !1189

for.inc105:                                       ; preds = %for.end104
  %71 = load i32, i32* %i, align 4, !dbg !1190
  %inc106 = add nsw i32 %71, 1, !dbg !1190
  store i32 %inc106, i32* %i, align 4, !dbg !1190
  br label %for.cond92, !dbg !1191, !llvm.loop !1192

for.end107:                                       ; preds = %for.cond92
  store i32 0, i32* %i, align 4, !dbg !1194
  br label %for.cond108, !dbg !1196

for.cond108:                                      ; preds = %for.inc121, %for.end107
  %72 = load i32, i32* %i, align 4, !dbg !1197
  %73 = load i32, i32* %ni.addr, align 4, !dbg !1199
  %cmp109 = icmp slt i32 %72, %73, !dbg !1200
  br i1 %cmp109, label %for.body110, label %for.end123, !dbg !1201

for.body110:                                      ; preds = %for.cond108
  store i32 0, i32* %j, align 4, !dbg !1202
  br label %for.cond111, !dbg !1204

for.cond111:                                      ; preds = %for.inc118, %for.body110
  %74 = load i32, i32* %j, align 4, !dbg !1205
  %75 = load i32, i32* %nl.addr, align 4, !dbg !1207
  %cmp112 = icmp slt i32 %74, %75, !dbg !1208
  br i1 %cmp112, label %for.body113, label %for.end120, !dbg !1209

for.body113:                                      ; preds = %for.cond111
  %76 = load double*, double** %G.addr, align 8, !dbg !1210
  %77 = load i32, i32* %i, align 4, !dbg !1211
  %78 = load i32, i32* %ni.addr, align 4, !dbg !1212
  %mul114 = mul nsw i32 %77, %78, !dbg !1213
  %79 = load i32, i32* %j, align 4, !dbg !1214
  %add115 = add nsw i32 %mul114, %79, !dbg !1215
  %idxprom116 = sext i32 %add115 to i64, !dbg !1210
  %arrayidx117 = getelementptr inbounds double, double* %76, i64 %idxprom116, !dbg !1210
  store double 0.000000e+00, double* %arrayidx117, align 8, !dbg !1216
  br label %for.inc118, !dbg !1210

for.inc118:                                       ; preds = %for.body113
  %80 = load i32, i32* %j, align 4, !dbg !1217
  %inc119 = add nsw i32 %80, 1, !dbg !1217
  store i32 %inc119, i32* %j, align 4, !dbg !1217
  br label %for.cond111, !dbg !1218, !llvm.loop !1219

for.end120:                                       ; preds = %for.cond111
  br label %for.inc121, !dbg !1220

for.inc121:                                       ; preds = %for.end120
  %81 = load i32, i32* %i, align 4, !dbg !1221
  %inc122 = add nsw i32 %81, 1, !dbg !1221
  store i32 %inc122, i32* %i, align 4, !dbg !1221
  br label %for.cond108, !dbg !1222, !llvm.loop !1223

for.end123:                                       ; preds = %for.cond108
  ret void, !dbg !1225
}

; Function Attrs: noinline uwtable
define internal i32 @_ZL10cudaMallocIdE9cudaErrorPPT_m(double** %devPtr, i64 %size) #0 !dbg !1226 {
entry:
  %devPtr.addr = alloca double**, align 8
  %size.addr = alloca i64, align 8
  store double** %devPtr, double*** %devPtr.addr, align 8
  call void @llvm.dbg.declare(metadata double*** %devPtr.addr, metadata !1234, metadata !DIExpression()), !dbg !1235
  store i64 %size, i64* %size.addr, align 8
  call void @llvm.dbg.declare(metadata i64* %size.addr, metadata !1236, metadata !DIExpression()), !dbg !1237
  %0 = load double**, double*** %devPtr.addr, align 8, !dbg !1238
  %1 = bitcast double** %0 to i8*, !dbg !1238
  %2 = bitcast i8* %1 to i8**, !dbg !1239
  %3 = load i64, i64* %size.addr, align 8, !dbg !1240
  %call = call i32 @cudaMalloc(i8** %2, i64 %3), !dbg !1241
  ret i32 %call, !dbg !1242
}

declare dso_local i32 @cudaMemcpy(i8*, i8*, i64, i32) #6

; Function Attrs: noinline uwtable
define internal void @_ZL6kerneliiiiiPdS_S_S_S_S_S_(i32 %ni, i32 %nj, i32 %nk, i32 %nl, i32 %nm, double* %E, double* %A, double* %B, double* %F, double* %C, double* %D, double* %G) #0 !dbg !1243 {
entry:
  %ni.addr = alloca i32, align 4
  %nj.addr = alloca i32, align 4
  %nk.addr = alloca i32, align 4
  %nl.addr = alloca i32, align 4
  %nm.addr = alloca i32, align 4
  %E.addr = alloca double*, align 8
  %A.addr = alloca double*, align 8
  %B.addr = alloca double*, align 8
  %F.addr = alloca double*, align 8
  %C.addr = alloca double*, align 8
  %D.addr = alloca double*, align 8
  %G.addr = alloca double*, align 8
  %threadsPerBlock = alloca i32, align 4
  %block = alloca %struct.dim3, align 4
  %grid = alloca %struct.dim3, align 4
  %agg.tmp = alloca %struct.dim3, align 4
  %agg.tmp2 = alloca %struct.dim3, align 4
  %agg.tmp.coerce = alloca { i64, i32 }, align 4
  %agg.tmp2.coerce = alloca { i64, i32 }, align 4
  %grid4 = alloca %struct.dim3, align 4
  %agg.tmp9 = alloca %struct.dim3, align 4
  %agg.tmp10 = alloca %struct.dim3, align 4
  %agg.tmp9.coerce = alloca { i64, i32 }, align 4
  %agg.tmp10.coerce = alloca { i64, i32 }, align 4
  %grid15 = alloca %struct.dim3, align 4
  %agg.tmp20 = alloca %struct.dim3, align 4
  %agg.tmp21 = alloca %struct.dim3, align 4
  %agg.tmp20.coerce = alloca { i64, i32 }, align 4
  %agg.tmp21.coerce = alloca { i64, i32 }, align 4
  store i32 %ni, i32* %ni.addr, align 4
  call void @llvm.dbg.declare(metadata i32* %ni.addr, metadata !1244, metadata !DIExpression()), !dbg !1245
  store i32 %nj, i32* %nj.addr, align 4
  call void @llvm.dbg.declare(metadata i32* %nj.addr, metadata !1246, metadata !DIExpression()), !dbg !1247
  store i32 %nk, i32* %nk.addr, align 4
  call void @llvm.dbg.declare(metadata i32* %nk.addr, metadata !1248, metadata !DIExpression()), !dbg !1249
  store i32 %nl, i32* %nl.addr, align 4
  call void @llvm.dbg.declare(metadata i32* %nl.addr, metadata !1250, metadata !DIExpression()), !dbg !1251
  store i32 %nm, i32* %nm.addr, align 4
  call void @llvm.dbg.declare(metadata i32* %nm.addr, metadata !1252, metadata !DIExpression()), !dbg !1253
  store double* %E, double** %E.addr, align 8
  call void @llvm.dbg.declare(metadata double** %E.addr, metadata !1254, metadata !DIExpression()), !dbg !1255
  store double* %A, double** %A.addr, align 8
  call void @llvm.dbg.declare(metadata double** %A.addr, metadata !1256, metadata !DIExpression()), !dbg !1257
  store double* %B, double** %B.addr, align 8
  call void @llvm.dbg.declare(metadata double** %B.addr, metadata !1258, metadata !DIExpression()), !dbg !1259
  store double* %F, double** %F.addr, align 8
  call void @llvm.dbg.declare(metadata double** %F.addr, metadata !1260, metadata !DIExpression()), !dbg !1261
  store double* %C, double** %C.addr, align 8
  call void @llvm.dbg.declare(metadata double** %C.addr, metadata !1262, metadata !DIExpression()), !dbg !1263
  store double* %D, double** %D.addr, align 8
  call void @llvm.dbg.declare(metadata double** %D.addr, metadata !1264, metadata !DIExpression()), !dbg !1265
  store double* %G, double** %G.addr, align 8
  call void @llvm.dbg.declare(metadata double** %G.addr, metadata !1266, metadata !DIExpression()), !dbg !1267
  call void @llvm.dbg.declare(metadata i32* %threadsPerBlock, metadata !1268, metadata !DIExpression()), !dbg !1269
  store i32 256, i32* %threadsPerBlock, align 4, !dbg !1269
  call void @llvm.dbg.declare(metadata %struct.dim3* %block, metadata !1270, metadata !DIExpression()), !dbg !1294
  %0 = load i32, i32* %threadsPerBlock, align 4, !dbg !1295
  %div = udiv i32 %0, 32, !dbg !1296
  call void @_ZN4dim3C2Ejjj(%struct.dim3* %block, i32 %div, i32 32, i32 1), !dbg !1294
  call void @llvm.dbg.declare(metadata %struct.dim3* %grid, metadata !1297, metadata !DIExpression()), !dbg !1299
  %1 = load i32, i32* %ni.addr, align 4, !dbg !1300
  %x = getelementptr inbounds %struct.dim3, %struct.dim3* %block, i32 0, i32 0, !dbg !1301
  %2 = load i32, i32* %x, align 4, !dbg !1301
  %call = call i32 @_ZL10num_blocksii(i32 %1, i32 %2), !dbg !1302
  %3 = load i32, i32* %nj.addr, align 4, !dbg !1303
  %y = getelementptr inbounds %struct.dim3, %struct.dim3* %block, i32 0, i32 1, !dbg !1304
  %4 = load i32, i32* %y, align 4, !dbg !1304
  %call1 = call i32 @_ZL10num_blocksii(i32 %3, i32 %4), !dbg !1305
  call void @_ZN4dim3C2Ejjj(%struct.dim3* %grid, i32 %call, i32 %call1, i32 1), !dbg !1299
  %5 = bitcast %struct.dim3* %agg.tmp to i8*, !dbg !1306
  %6 = bitcast %struct.dim3* %grid to i8*, !dbg !1306
  call void @llvm.memcpy.p0i8.p0i8.i64(i8* align 4 %5, i8* align 4 %6, i64 12, i1 false), !dbg !1306
  %7 = bitcast %struct.dim3* %agg.tmp2 to i8*, !dbg !1307
  %8 = bitcast %struct.dim3* %block to i8*, !dbg !1307
  call void @llvm.memcpy.p0i8.p0i8.i64(i8* align 4 %7, i8* align 4 %8, i64 12, i1 false), !dbg !1307
  %9 = bitcast { i64, i32 }* %agg.tmp.coerce to i8*, !dbg !1308
  %10 = bitcast %struct.dim3* %agg.tmp to i8*, !dbg !1308
  call void @llvm.memcpy.p0i8.p0i8.i64(i8* align 4 %9, i8* align 4 %10, i64 12, i1 false), !dbg !1308
  %11 = getelementptr inbounds { i64, i32 }, { i64, i32 }* %agg.tmp.coerce, i32 0, i32 0, !dbg !1308
  %12 = load i64, i64* %11, align 4, !dbg !1308
  %13 = getelementptr inbounds { i64, i32 }, { i64, i32 }* %agg.tmp.coerce, i32 0, i32 1, !dbg !1308
  %14 = load i32, i32* %13, align 4, !dbg !1308
  %15 = bitcast { i64, i32 }* %agg.tmp2.coerce to i8*, !dbg !1308
  %16 = bitcast %struct.dim3* %agg.tmp2 to i8*, !dbg !1308
  call void @llvm.memcpy.p0i8.p0i8.i64(i8* align 4 %15, i8* align 4 %16, i64 12, i1 false), !dbg !1308
  %17 = getelementptr inbounds { i64, i32 }, { i64, i32 }* %agg.tmp2.coerce, i32 0, i32 0, !dbg !1308
  %18 = load i64, i64* %17, align 4, !dbg !1308
  %19 = getelementptr inbounds { i64, i32 }, { i64, i32 }* %agg.tmp2.coerce, i32 0, i32 1, !dbg !1308
  %20 = load i32, i32* %19, align 4, !dbg !1308
  %call3 = call i32 @cudaConfigureCall(i64 %12, i32 %14, i64 %18, i32 %20, i64 0, %struct.CUstream_st* null), !dbg !1308
  %tobool = icmp ne i32 %call3, 0, !dbg !1308
  br i1 %tobool, label %kcall.end, label %kcall.configok, !dbg !1309

kcall.configok:                                   ; preds = %entry
  %21 = load i32, i32* %ni.addr, align 4, !dbg !1310
  %22 = load i32, i32* %nj.addr, align 4, !dbg !1311
  %23 = load i32, i32* %nk.addr, align 4, !dbg !1312
  %24 = load double*, double** %E.addr, align 8, !dbg !1313
  %25 = load double*, double** %A.addr, align 8, !dbg !1314
  %26 = load double*, double** %B.addr, align 8, !dbg !1315
  call void @_Z14kernel_A_mul_BiiiPdS_S_(i32 %21, i32 %22, i32 %23, double* %24, double* %25, double* %26), !dbg !1309
  br label %kcall.end, !dbg !1309

kcall.end:                                        ; preds = %kcall.configok, %entry
  call void @llvm.dbg.declare(metadata %struct.dim3* %grid4, metadata !1316, metadata !DIExpression()), !dbg !1318
  %27 = load i32, i32* %nj.addr, align 4, !dbg !1319
  %x5 = getelementptr inbounds %struct.dim3, %struct.dim3* %block, i32 0, i32 0, !dbg !1320
  %28 = load i32, i32* %x5, align 4, !dbg !1320
  %call6 = call i32 @_ZL10num_blocksii(i32 %27, i32 %28), !dbg !1321
  %29 = load i32, i32* %nl.addr, align 4, !dbg !1322
  %y7 = getelementptr inbounds %struct.dim3, %struct.dim3* %block, i32 0, i32 1, !dbg !1323
  %30 = load i32, i32* %y7, align 4, !dbg !1323
  %call8 = call i32 @_ZL10num_blocksii(i32 %29, i32 %30), !dbg !1324
  call void @_ZN4dim3C2Ejjj(%struct.dim3* %grid4, i32 %call6, i32 %call8, i32 1), !dbg !1318
  %31 = bitcast %struct.dim3* %agg.tmp9 to i8*, !dbg !1325
  %32 = bitcast %struct.dim3* %grid4 to i8*, !dbg !1325
  call void @llvm.memcpy.p0i8.p0i8.i64(i8* align 4 %31, i8* align 4 %32, i64 12, i1 false), !dbg !1325
  %33 = bitcast %struct.dim3* %agg.tmp10 to i8*, !dbg !1326
  %34 = bitcast %struct.dim3* %block to i8*, !dbg !1326
  call void @llvm.memcpy.p0i8.p0i8.i64(i8* align 4 %33, i8* align 4 %34, i64 12, i1 false), !dbg !1326
  %35 = bitcast { i64, i32 }* %agg.tmp9.coerce to i8*, !dbg !1327
  %36 = bitcast %struct.dim3* %agg.tmp9 to i8*, !dbg !1327
  call void @llvm.memcpy.p0i8.p0i8.i64(i8* align 4 %35, i8* align 4 %36, i64 12, i1 false), !dbg !1327
  %37 = getelementptr inbounds { i64, i32 }, { i64, i32 }* %agg.tmp9.coerce, i32 0, i32 0, !dbg !1327
  %38 = load i64, i64* %37, align 4, !dbg !1327
  %39 = getelementptr inbounds { i64, i32 }, { i64, i32 }* %agg.tmp9.coerce, i32 0, i32 1, !dbg !1327
  %40 = load i32, i32* %39, align 4, !dbg !1327
  %41 = bitcast { i64, i32 }* %agg.tmp10.coerce to i8*, !dbg !1327
  %42 = bitcast %struct.dim3* %agg.tmp10 to i8*, !dbg !1327
  call void @llvm.memcpy.p0i8.p0i8.i64(i8* align 4 %41, i8* align 4 %42, i64 12, i1 false), !dbg !1327
  %43 = getelementptr inbounds { i64, i32 }, { i64, i32 }* %agg.tmp10.coerce, i32 0, i32 0, !dbg !1327
  %44 = load i64, i64* %43, align 4, !dbg !1327
  %45 = getelementptr inbounds { i64, i32 }, { i64, i32 }* %agg.tmp10.coerce, i32 0, i32 1, !dbg !1327
  %46 = load i32, i32* %45, align 4, !dbg !1327
  %call11 = call i32 @cudaConfigureCall(i64 %38, i32 %40, i64 %44, i32 %46, i64 0, %struct.CUstream_st* null), !dbg !1327
  %tobool12 = icmp ne i32 %call11, 0, !dbg !1327
  br i1 %tobool12, label %kcall.end14, label %kcall.configok13, !dbg !1328

kcall.configok13:                                 ; preds = %kcall.end
  %47 = load i32, i32* %nj.addr, align 4, !dbg !1329
  %48 = load i32, i32* %nl.addr, align 4, !dbg !1330
  %49 = load i32, i32* %nm.addr, align 4, !dbg !1331
  %50 = load double*, double** %F.addr, align 8, !dbg !1332
  %51 = load double*, double** %C.addr, align 8, !dbg !1333
  %52 = load double*, double** %D.addr, align 8, !dbg !1334
  call void @_Z14kernel_A_mul_BiiiPdS_S_(i32 %47, i32 %48, i32 %49, double* %50, double* %51, double* %52), !dbg !1328
  br label %kcall.end14, !dbg !1328

kcall.end14:                                      ; preds = %kcall.configok13, %kcall.end
  call void @llvm.dbg.declare(metadata %struct.dim3* %grid15, metadata !1335, metadata !DIExpression()), !dbg !1337
  %53 = load i32, i32* %ni.addr, align 4, !dbg !1338
  %x16 = getelementptr inbounds %struct.dim3, %struct.dim3* %block, i32 0, i32 0, !dbg !1339
  %54 = load i32, i32* %x16, align 4, !dbg !1339
  %call17 = call i32 @_ZL10num_blocksii(i32 %53, i32 %54), !dbg !1340
  %55 = load i32, i32* %nl.addr, align 4, !dbg !1341
  %y18 = getelementptr inbounds %struct.dim3, %struct.dim3* %block, i32 0, i32 1, !dbg !1342
  %56 = load i32, i32* %y18, align 4, !dbg !1342
  %call19 = call i32 @_ZL10num_blocksii(i32 %55, i32 %56), !dbg !1343
  call void @_ZN4dim3C2Ejjj(%struct.dim3* %grid15, i32 %call17, i32 %call19, i32 1), !dbg !1337
  %57 = bitcast %struct.dim3* %agg.tmp20 to i8*, !dbg !1344
  %58 = bitcast %struct.dim3* %grid15 to i8*, !dbg !1344
  call void @llvm.memcpy.p0i8.p0i8.i64(i8* align 4 %57, i8* align 4 %58, i64 12, i1 false), !dbg !1344
  %59 = bitcast %struct.dim3* %agg.tmp21 to i8*, !dbg !1345
  %60 = bitcast %struct.dim3* %block to i8*, !dbg !1345
  call void @llvm.memcpy.p0i8.p0i8.i64(i8* align 4 %59, i8* align 4 %60, i64 12, i1 false), !dbg !1345
  %61 = bitcast { i64, i32 }* %agg.tmp20.coerce to i8*, !dbg !1346
  %62 = bitcast %struct.dim3* %agg.tmp20 to i8*, !dbg !1346
  call void @llvm.memcpy.p0i8.p0i8.i64(i8* align 4 %61, i8* align 4 %62, i64 12, i1 false), !dbg !1346
  %63 = getelementptr inbounds { i64, i32 }, { i64, i32 }* %agg.tmp20.coerce, i32 0, i32 0, !dbg !1346
  %64 = load i64, i64* %63, align 4, !dbg !1346
  %65 = getelementptr inbounds { i64, i32 }, { i64, i32 }* %agg.tmp20.coerce, i32 0, i32 1, !dbg !1346
  %66 = load i32, i32* %65, align 4, !dbg !1346
  %67 = bitcast { i64, i32 }* %agg.tmp21.coerce to i8*, !dbg !1346
  %68 = bitcast %struct.dim3* %agg.tmp21 to i8*, !dbg !1346
  call void @llvm.memcpy.p0i8.p0i8.i64(i8* align 4 %67, i8* align 4 %68, i64 12, i1 false), !dbg !1346
  %69 = getelementptr inbounds { i64, i32 }, { i64, i32 }* %agg.tmp21.coerce, i32 0, i32 0, !dbg !1346
  %70 = load i64, i64* %69, align 4, !dbg !1346
  %71 = getelementptr inbounds { i64, i32 }, { i64, i32 }* %agg.tmp21.coerce, i32 0, i32 1, !dbg !1346
  %72 = load i32, i32* %71, align 4, !dbg !1346
  %call22 = call i32 @cudaConfigureCall(i64 %64, i32 %66, i64 %70, i32 %72, i64 0, %struct.CUstream_st* null), !dbg !1346
  %tobool23 = icmp ne i32 %call22, 0, !dbg !1346
  br i1 %tobool23, label %kcall.end25, label %kcall.configok24, !dbg !1347

kcall.configok24:                                 ; preds = %kcall.end14
  %73 = load i32, i32* %ni.addr, align 4, !dbg !1348
  %74 = load i32, i32* %nl.addr, align 4, !dbg !1349
  %75 = load i32, i32* %nj.addr, align 4, !dbg !1350
  %76 = load double*, double** %G.addr, align 8, !dbg !1351
  %77 = load double*, double** %E.addr, align 8, !dbg !1352
  %78 = load double*, double** %F.addr, align 8, !dbg !1353
  call void @_Z14kernel_A_mul_BiiiPdS_S_(i32 %73, i32 %74, i32 %75, double* %76, double* %77, double* %78), !dbg !1347
  br label %kcall.end25, !dbg !1347

kcall.end25:                                      ; preds = %kcall.configok24, %kcall.end14
  ret void, !dbg !1354
}

; Function Attrs: noinline uwtable
define internal void @_ZL11print_arrayiiPd(i32 %ni, i32 %nl, double* %G) #0 !dbg !1355 {
entry:
  %ni.addr = alloca i32, align 4
  %nl.addr = alloca i32, align 4
  %G.addr = alloca double*, align 8
  %i = alloca i32, align 4
  %j = alloca i32, align 4
  store i32 %ni, i32* %ni.addr, align 4
  call void @llvm.dbg.declare(metadata i32* %ni.addr, metadata !1358, metadata !DIExpression()), !dbg !1359
  store i32 %nl, i32* %nl.addr, align 4
  call void @llvm.dbg.declare(metadata i32* %nl.addr, metadata !1360, metadata !DIExpression()), !dbg !1361
  store double* %G, double** %G.addr, align 8
  call void @llvm.dbg.declare(metadata double** %G.addr, metadata !1362, metadata !DIExpression()), !dbg !1363
  call void @llvm.dbg.declare(metadata i32* %i, metadata !1364, metadata !DIExpression()), !dbg !1365
  call void @llvm.dbg.declare(metadata i32* %j, metadata !1366, metadata !DIExpression()), !dbg !1367
  store i32 0, i32* %i, align 4, !dbg !1368
  br label %for.cond, !dbg !1370

for.cond:                                         ; preds = %for.inc8, %entry
  %0 = load i32, i32* %i, align 4, !dbg !1371
  %1 = load i32, i32* %ni.addr, align 4, !dbg !1373
  %cmp = icmp slt i32 %0, %1, !dbg !1374
  br i1 %cmp, label %for.body, label %for.end10, !dbg !1375

for.body:                                         ; preds = %for.cond
  store i32 0, i32* %j, align 4, !dbg !1376
  br label %for.cond1, !dbg !1378

for.cond1:                                        ; preds = %for.inc, %for.body
  %2 = load i32, i32* %j, align 4, !dbg !1379
  %3 = load i32, i32* %nl.addr, align 4, !dbg !1381
  %cmp2 = icmp slt i32 %2, %3, !dbg !1382
  br i1 %cmp2, label %for.body3, label %for.end, !dbg !1383

for.body3:                                        ; preds = %for.cond1
  %4 = load %struct._IO_FILE*, %struct._IO_FILE** @stderr, align 8, !dbg !1384
  %5 = load double*, double** %G.addr, align 8, !dbg !1386
  %6 = load i32, i32* %i, align 4, !dbg !1387
  %7 = load i32, i32* %ni.addr, align 4, !dbg !1388
  %mul = mul nsw i32 %6, %7, !dbg !1389
  %8 = load i32, i32* %j, align 4, !dbg !1390
  %add = add nsw i32 %mul, %8, !dbg !1391
  %idxprom = sext i32 %add to i64, !dbg !1386
  %arrayidx = getelementptr inbounds double, double* %5, i64 %idxprom, !dbg !1386
  %9 = load double, double* %arrayidx, align 8, !dbg !1386
  %call = call i32 (%struct._IO_FILE*, i8*, ...) @fprintf(%struct._IO_FILE* %4, i8* getelementptr inbounds ([8 x i8], [8 x i8]* @.str, i64 0, i64 0), double %9), !dbg !1392
  %10 = load i32, i32* %i, align 4, !dbg !1393
  %11 = load i32, i32* %ni.addr, align 4, !dbg !1395
  %mul4 = mul nsw i32 %10, %11, !dbg !1396
  %12 = load i32, i32* %j, align 4, !dbg !1397
  %add5 = add nsw i32 %mul4, %12, !dbg !1398
  %rem = srem i32 %add5, 20, !dbg !1399
  %cmp6 = icmp eq i32 %rem, 0, !dbg !1400
  br i1 %cmp6, label %if.then, label %if.end, !dbg !1401

if.then:                                          ; preds = %for.body3
  %13 = load %struct._IO_FILE*, %struct._IO_FILE** @stderr, align 8, !dbg !1402
  %call7 = call i32 (%struct._IO_FILE*, i8*, ...) @fprintf(%struct._IO_FILE* %13, i8* getelementptr inbounds ([2 x i8], [2 x i8]* @.str.1, i64 0, i64 0)), !dbg !1403
  br label %if.end, !dbg !1403

if.end:                                           ; preds = %if.then, %for.body3
  br label %for.inc, !dbg !1404

for.inc:                                          ; preds = %if.end
  %14 = load i32, i32* %j, align 4, !dbg !1405
  %inc = add nsw i32 %14, 1, !dbg !1405
  store i32 %inc, i32* %j, align 4, !dbg !1405
  br label %for.cond1, !dbg !1406, !llvm.loop !1407

for.end:                                          ; preds = %for.cond1
  br label %for.inc8, !dbg !1408

for.inc8:                                         ; preds = %for.end
  %15 = load i32, i32* %i, align 4, !dbg !1409
  %inc9 = add nsw i32 %15, 1, !dbg !1409
  store i32 %inc9, i32* %i, align 4, !dbg !1409
  br label %for.cond, !dbg !1410, !llvm.loop !1411

for.end10:                                        ; preds = %for.cond
  %16 = load %struct._IO_FILE*, %struct._IO_FILE** @stderr, align 8, !dbg !1413
  %call11 = call i32 (%struct._IO_FILE*, i8*, ...) @fprintf(%struct._IO_FILE* %16, i8* getelementptr inbounds ([2 x i8], [2 x i8]* @.str.1, i64 0, i64 0)), !dbg !1414
  ret void, !dbg !1415
}

; Function Attrs: nounwind
declare dso_local void @free(i8*) #4

; Function Attrs: noinline nounwind uwtable
define linkonce_odr dso_local void @_ZN4dim3C2Ejjj(%struct.dim3* %this, i32 %vx, i32 %vy, i32 %vz) unnamed_addr #5 comdat align 2 !dbg !1416 {
entry:
  %this.addr = alloca %struct.dim3*, align 8
  %vx.addr = alloca i32, align 4
  %vy.addr = alloca i32, align 4
  %vz.addr = alloca i32, align 4
  store %struct.dim3* %this, %struct.dim3** %this.addr, align 8
  call void @llvm.dbg.declare(metadata %struct.dim3** %this.addr, metadata !1417, metadata !DIExpression()), !dbg !1419
  store i32 %vx, i32* %vx.addr, align 4
  call void @llvm.dbg.declare(metadata i32* %vx.addr, metadata !1420, metadata !DIExpression()), !dbg !1421
  store i32 %vy, i32* %vy.addr, align 4
  call void @llvm.dbg.declare(metadata i32* %vy.addr, metadata !1422, metadata !DIExpression()), !dbg !1423
  store i32 %vz, i32* %vz.addr, align 4
  call void @llvm.dbg.declare(metadata i32* %vz.addr, metadata !1424, metadata !DIExpression()), !dbg !1425
  %this1 = load %struct.dim3*, %struct.dim3** %this.addr, align 8
  %x = getelementptr inbounds %struct.dim3, %struct.dim3* %this1, i32 0, i32 0, !dbg !1426
  %0 = load i32, i32* %vx.addr, align 4, !dbg !1427
  store i32 %0, i32* %x, align 4, !dbg !1426
  %y = getelementptr inbounds %struct.dim3, %struct.dim3* %this1, i32 0, i32 1, !dbg !1428
  %1 = load i32, i32* %vy.addr, align 4, !dbg !1429
  store i32 %1, i32* %y, align 4, !dbg !1428
  %z = getelementptr inbounds %struct.dim3, %struct.dim3* %this1, i32 0, i32 2, !dbg !1430
  %2 = load i32, i32* %vz.addr, align 4, !dbg !1431
  store i32 %2, i32* %z, align 4, !dbg !1430
  ret void, !dbg !1432
}

; Function Attrs: noinline nounwind uwtable
define internal i32 @_ZL10num_blocksii(i32 %num, i32 %factor) #5 !dbg !1433 {
entry:
  %num.addr = alloca i32, align 4
  %factor.addr = alloca i32, align 4
  store i32 %num, i32* %num.addr, align 4
  call void @llvm.dbg.declare(metadata i32* %num.addr, metadata !1436, metadata !DIExpression()), !dbg !1437
  store i32 %factor, i32* %factor.addr, align 4
  call void @llvm.dbg.declare(metadata i32* %factor.addr, metadata !1438, metadata !DIExpression()), !dbg !1439
  %0 = load i32, i32* %num.addr, align 4, !dbg !1440
  %1 = load i32, i32* %factor.addr, align 4, !dbg !1441
  %add = add nsw i32 %0, %1, !dbg !1442
  %sub = sub nsw i32 %add, 1, !dbg !1443
  %2 = load i32, i32* %factor.addr, align 4, !dbg !1444
  %div = sdiv i32 %sub, %2, !dbg !1445
  ret i32 %div, !dbg !1446
}

declare dso_local i32 @cudaConfigureCall(i64, i32, i64, i32, i64, %struct.CUstream_st*) #6

; Function Attrs: argmemonly nounwind
declare void @llvm.memcpy.p0i8.p0i8.i64(i8* nocapture writeonly, i8* nocapture readonly, i64, i1 immarg) #7

declare dso_local i32 @fprintf(%struct._IO_FILE*, i8*, ...) #6

declare dso_local i32 @cudaMalloc(i8**, i64) #6

attributes #0 = { noinline uwtable "correctly-rounded-divide-sqrt-fp-math"="false" "disable-tail-calls"="false" "less-precise-fpmad"="false" "min-legal-vector-width"="0" "no-frame-pointer-elim"="true" "no-frame-pointer-elim-non-leaf" "no-infs-fp-math"="false" "no-jump-tables"="false" "no-nans-fp-math"="false" "no-signed-zeros-fp-math"="false" "no-trapping-math"="false" "stack-protector-buffer-size"="8" "target-cpu"="x86-64" "target-features"="+cx8,+fxsr,+mmx,+sse,+sse2,+x87" "unsafe-fp-math"="false" "use-soft-float"="false" }
attributes #1 = { nounwind readnone speculatable }
attributes #2 = { noinline norecurse uwtable "correctly-rounded-divide-sqrt-fp-math"="false" "disable-tail-calls"="false" "less-precise-fpmad"="false" "min-legal-vector-width"="0" "no-frame-pointer-elim"="true" "no-frame-pointer-elim-non-leaf" "no-infs-fp-math"="false" "no-jump-tables"="false" "no-nans-fp-math"="false" "no-signed-zeros-fp-math"="false" "no-trapping-math"="false" "stack-protector-buffer-size"="8" "target-cpu"="x86-64" "target-features"="+cx8,+fxsr,+mmx,+sse,+sse2,+x87" "unsafe-fp-math"="false" "use-soft-float"="false" }
attributes #3 = { nounwind readonly "correctly-rounded-divide-sqrt-fp-math"="false" "disable-tail-calls"="false" "less-precise-fpmad"="false" "no-frame-pointer-elim"="true" "no-frame-pointer-elim-non-leaf" "no-infs-fp-math"="false" "no-nans-fp-math"="false" "no-signed-zeros-fp-math"="false" "no-trapping-math"="false" "stack-protector-buffer-size"="8" "target-cpu"="x86-64" "target-features"="+cx8,+fxsr,+mmx,+sse,+sse2,+x87" "unsafe-fp-math"="false" "use-soft-float"="false" }
attributes #4 = { nounwind "correctly-rounded-divide-sqrt-fp-math"="false" "disable-tail-calls"="false" "less-precise-fpmad"="false" "no-frame-pointer-elim"="true" "no-frame-pointer-elim-non-leaf" "no-infs-fp-math"="false" "no-nans-fp-math"="false" "no-signed-zeros-fp-math"="false" "no-trapping-math"="false" "stack-protector-buffer-size"="8" "target-cpu"="x86-64" "target-features"="+cx8,+fxsr,+mmx,+sse,+sse2,+x87" "unsafe-fp-math"="false" "use-soft-float"="false" }
attributes #5 = { noinline nounwind uwtable "correctly-rounded-divide-sqrt-fp-math"="false" "disable-tail-calls"="false" "less-precise-fpmad"="false" "min-legal-vector-width"="0" "no-frame-pointer-elim"="true" "no-frame-pointer-elim-non-leaf" "no-infs-fp-math"="false" "no-jump-tables"="false" "no-nans-fp-math"="false" "no-signed-zeros-fp-math"="false" "no-trapping-math"="false" "stack-protector-buffer-size"="8" "target-cpu"="x86-64" "target-features"="+cx8,+fxsr,+mmx,+sse,+sse2,+x87" "unsafe-fp-math"="false" "use-soft-float"="false" }
attributes #6 = { "correctly-rounded-divide-sqrt-fp-math"="false" "disable-tail-calls"="false" "less-precise-fpmad"="false" "no-frame-pointer-elim"="true" "no-frame-pointer-elim-non-leaf" "no-infs-fp-math"="false" "no-nans-fp-math"="false" "no-signed-zeros-fp-math"="false" "no-trapping-math"="false" "stack-protector-buffer-size"="8" "target-cpu"="x86-64" "target-features"="+cx8,+fxsr,+mmx,+sse,+sse2,+x87" "unsafe-fp-math"="false" "use-soft-float"="false" }
attributes #7 = { argmemonly nounwind }
attributes #8 = { nounwind readonly }
attributes #9 = { nounwind }

!llvm.module.flags = !{!0, !1, !2, !3}
!llvm.dbg.cu = !{!4}
!llvm.ident = !{!691}

!0 = !{i32 2, !"SDK Version", [2 x i32] [i32 7, i32 0]}
!1 = !{i32 2, !"Dwarf Version", i32 4}
!2 = !{i32 2, !"Debug Info Version", i32 3}
!3 = !{i32 1, !"wchar_size", i32 4}
!4 = distinct !DICompileUnit(language: DW_LANG_C_plus_plus, file: !5, producer: "clang version 9.0.0 (git@github.com:SusanTan/llvm-project.git a1efa594106d738d0b74c9e4e2b9b779eb8b7d25)", isOptimized: false, runtimeVersion: 0, emissionKind: FullDebug, enums: !6, retainedTypes: !98, imports: !103, nameTableKind: None)
!5 = !DIFile(filename: "3mm.cu", directory: "/u/NAS_SCRATCH/yc0769/xstack-benchmark/polybench-cuda/3mm")
!6 = !{!7, !16}
!7 = !DICompositeType(tag: DW_TAG_enumeration_type, name: "cudaMemcpyKind", file: !8, line: 796, baseType: !9, size: 32, elements: !10, identifier: "_ZTS14cudaMemcpyKind")
!8 = !DIFile(filename: "/usr/local/cuda/include/driver_types.h", directory: "")
!9 = !DIBasicType(name: "unsigned int", size: 32, encoding: DW_ATE_unsigned)
!10 = !{!11, !12, !13, !14, !15}
!11 = !DIEnumerator(name: "cudaMemcpyHostToHost", value: 0, isUnsigned: true)
!12 = !DIEnumerator(name: "cudaMemcpyHostToDevice", value: 1, isUnsigned: true)
!13 = !DIEnumerator(name: "cudaMemcpyDeviceToHost", value: 2, isUnsigned: true)
!14 = !DIEnumerator(name: "cudaMemcpyDeviceToDevice", value: 3, isUnsigned: true)
!15 = !DIEnumerator(name: "cudaMemcpyDefault", value: 4, isUnsigned: true)
!16 = !DICompositeType(tag: DW_TAG_enumeration_type, name: "cudaError", file: !8, line: 150, baseType: !9, size: 32, elements: !17, identifier: "_ZTS9cudaError")
!17 = !{!18, !19, !20, !21, !22, !23, !24, !25, !26, !27, !28, !29, !30, !31, !32, !33, !34, !35, !36, !37, !38, !39, !40, !41, !42, !43, !44, !45, !46, !47, !48, !49, !50, !51, !52, !53, !54, !55, !56, !57, !58, !59, !60, !61, !62, !63, !64, !65, !66, !67, !68, !69, !70, !71, !72, !73, !74, !75, !76, !77, !78, !79, !80, !81, !82, !83, !84, !85, !86, !87, !88, !89, !90, !91, !92, !93, !94, !95, !96, !97}
!18 = !DIEnumerator(name: "cudaSuccess", value: 0, isUnsigned: true)
!19 = !DIEnumerator(name: "cudaErrorMissingConfiguration", value: 1, isUnsigned: true)
!20 = !DIEnumerator(name: "cudaErrorMemoryAllocation", value: 2, isUnsigned: true)
!21 = !DIEnumerator(name: "cudaErrorInitializationError", value: 3, isUnsigned: true)
!22 = !DIEnumerator(name: "cudaErrorLaunchFailure", value: 4, isUnsigned: true)
!23 = !DIEnumerator(name: "cudaErrorPriorLaunchFailure", value: 5, isUnsigned: true)
!24 = !DIEnumerator(name: "cudaErrorLaunchTimeout", value: 6, isUnsigned: true)
!25 = !DIEnumerator(name: "cudaErrorLaunchOutOfResources", value: 7, isUnsigned: true)
!26 = !DIEnumerator(name: "cudaErrorInvalidDeviceFunction", value: 8, isUnsigned: true)
!27 = !DIEnumerator(name: "cudaErrorInvalidConfiguration", value: 9, isUnsigned: true)
!28 = !DIEnumerator(name: "cudaErrorInvalidDevice", value: 10, isUnsigned: true)
!29 = !DIEnumerator(name: "cudaErrorInvalidValue", value: 11, isUnsigned: true)
!30 = !DIEnumerator(name: "cudaErrorInvalidPitchValue", value: 12, isUnsigned: true)
!31 = !DIEnumerator(name: "cudaErrorInvalidSymbol", value: 13, isUnsigned: true)
!32 = !DIEnumerator(name: "cudaErrorMapBufferObjectFailed", value: 14, isUnsigned: true)
!33 = !DIEnumerator(name: "cudaErrorUnmapBufferObjectFailed", value: 15, isUnsigned: true)
!34 = !DIEnumerator(name: "cudaErrorInvalidHostPointer", value: 16, isUnsigned: true)
!35 = !DIEnumerator(name: "cudaErrorInvalidDevicePointer", value: 17, isUnsigned: true)
!36 = !DIEnumerator(name: "cudaErrorInvalidTexture", value: 18, isUnsigned: true)
!37 = !DIEnumerator(name: "cudaErrorInvalidTextureBinding", value: 19, isUnsigned: true)
!38 = !DIEnumerator(name: "cudaErrorInvalidChannelDescriptor", value: 20, isUnsigned: true)
!39 = !DIEnumerator(name: "cudaErrorInvalidMemcpyDirection", value: 21, isUnsigned: true)
!40 = !DIEnumerator(name: "cudaErrorAddressOfConstant", value: 22, isUnsigned: true)
!41 = !DIEnumerator(name: "cudaErrorTextureFetchFailed", value: 23, isUnsigned: true)
!42 = !DIEnumerator(name: "cudaErrorTextureNotBound", value: 24, isUnsigned: true)
!43 = !DIEnumerator(name: "cudaErrorSynchronizationError", value: 25, isUnsigned: true)
!44 = !DIEnumerator(name: "cudaErrorInvalidFilterSetting", value: 26, isUnsigned: true)
!45 = !DIEnumerator(name: "cudaErrorInvalidNormSetting", value: 27, isUnsigned: true)
!46 = !DIEnumerator(name: "cudaErrorMixedDeviceExecution", value: 28, isUnsigned: true)
!47 = !DIEnumerator(name: "cudaErrorCudartUnloading", value: 29, isUnsigned: true)
!48 = !DIEnumerator(name: "cudaErrorUnknown", value: 30, isUnsigned: true)
!49 = !DIEnumerator(name: "cudaErrorNotYetImplemented", value: 31, isUnsigned: true)
!50 = !DIEnumerator(name: "cudaErrorMemoryValueTooLarge", value: 32, isUnsigned: true)
!51 = !DIEnumerator(name: "cudaErrorInvalidResourceHandle", value: 33, isUnsigned: true)
!52 = !DIEnumerator(name: "cudaErrorNotReady", value: 34, isUnsigned: true)
!53 = !DIEnumerator(name: "cudaErrorInsufficientDriver", value: 35, isUnsigned: true)
!54 = !DIEnumerator(name: "cudaErrorSetOnActiveProcess", value: 36, isUnsigned: true)
!55 = !DIEnumerator(name: "cudaErrorInvalidSurface", value: 37, isUnsigned: true)
!56 = !DIEnumerator(name: "cudaErrorNoDevice", value: 38, isUnsigned: true)
!57 = !DIEnumerator(name: "cudaErrorECCUncorrectable", value: 39, isUnsigned: true)
!58 = !DIEnumerator(name: "cudaErrorSharedObjectSymbolNotFound", value: 40, isUnsigned: true)
!59 = !DIEnumerator(name: "cudaErrorSharedObjectInitFailed", value: 41, isUnsigned: true)
!60 = !DIEnumerator(name: "cudaErrorUnsupportedLimit", value: 42, isUnsigned: true)
!61 = !DIEnumerator(name: "cudaErrorDuplicateVariableName", value: 43, isUnsigned: true)
!62 = !DIEnumerator(name: "cudaErrorDuplicateTextureName", value: 44, isUnsigned: true)
!63 = !DIEnumerator(name: "cudaErrorDuplicateSurfaceName", value: 45, isUnsigned: true)
!64 = !DIEnumerator(name: "cudaErrorDevicesUnavailable", value: 46, isUnsigned: true)
!65 = !DIEnumerator(name: "cudaErrorInvalidKernelImage", value: 47, isUnsigned: true)
!66 = !DIEnumerator(name: "cudaErrorNoKernelImageForDevice", value: 48, isUnsigned: true)
!67 = !DIEnumerator(name: "cudaErrorIncompatibleDriverContext", value: 49, isUnsigned: true)
!68 = !DIEnumerator(name: "cudaErrorPeerAccessAlreadyEnabled", value: 50, isUnsigned: true)
!69 = !DIEnumerator(name: "cudaErrorPeerAccessNotEnabled", value: 51, isUnsigned: true)
!70 = !DIEnumerator(name: "cudaErrorDeviceAlreadyInUse", value: 54, isUnsigned: true)
!71 = !DIEnumerator(name: "cudaErrorProfilerDisabled", value: 55, isUnsigned: true)
!72 = !DIEnumerator(name: "cudaErrorProfilerNotInitialized", value: 56, isUnsigned: true)
!73 = !DIEnumerator(name: "cudaErrorProfilerAlreadyStarted", value: 57, isUnsigned: true)
!74 = !DIEnumerator(name: "cudaErrorProfilerAlreadyStopped", value: 58, isUnsigned: true)
!75 = !DIEnumerator(name: "cudaErrorAssert", value: 59, isUnsigned: true)
!76 = !DIEnumerator(name: "cudaErrorTooManyPeers", value: 60, isUnsigned: true)
!77 = !DIEnumerator(name: "cudaErrorHostMemoryAlreadyRegistered", value: 61, isUnsigned: true)
!78 = !DIEnumerator(name: "cudaErrorHostMemoryNotRegistered", value: 62, isUnsigned: true)
!79 = !DIEnumerator(name: "cudaErrorOperatingSystem", value: 63, isUnsigned: true)
!80 = !DIEnumerator(name: "cudaErrorPeerAccessUnsupported", value: 64, isUnsigned: true)
!81 = !DIEnumerator(name: "cudaErrorLaunchMaxDepthExceeded", value: 65, isUnsigned: true)
!82 = !DIEnumerator(name: "cudaErrorLaunchFileScopedTex", value: 66, isUnsigned: true)
!83 = !DIEnumerator(name: "cudaErrorLaunchFileScopedSurf", value: 67, isUnsigned: true)
!84 = !DIEnumerator(name: "cudaErrorSyncDepthExceeded", value: 68, isUnsigned: true)
!85 = !DIEnumerator(name: "cudaErrorLaunchPendingCountExceeded", value: 69, isUnsigned: true)
!86 = !DIEnumerator(name: "cudaErrorNotPermitted", value: 70, isUnsigned: true)
!87 = !DIEnumerator(name: "cudaErrorNotSupported", value: 71, isUnsigned: true)
!88 = !DIEnumerator(name: "cudaErrorHardwareStackError", value: 72, isUnsigned: true)
!89 = !DIEnumerator(name: "cudaErrorIllegalInstruction", value: 73, isUnsigned: true)
!90 = !DIEnumerator(name: "cudaErrorMisalignedAddress", value: 74, isUnsigned: true)
!91 = !DIEnumerator(name: "cudaErrorInvalidAddressSpace", value: 75, isUnsigned: true)
!92 = !DIEnumerator(name: "cudaErrorInvalidPc", value: 76, isUnsigned: true)
!93 = !DIEnumerator(name: "cudaErrorIllegalAddress", value: 77, isUnsigned: true)
!94 = !DIEnumerator(name: "cudaErrorInvalidPtx", value: 78, isUnsigned: true)
!95 = !DIEnumerator(name: "cudaErrorInvalidGraphicsContext", value: 79, isUnsigned: true)
!96 = !DIEnumerator(name: "cudaErrorStartupFailure", value: 127, isUnsigned: true)
!97 = !DIEnumerator(name: "cudaErrorApiFailureBase", value: 10000, isUnsigned: true)
!98 = !{!99, !101, !100, !102}
!99 = !DIDerivedType(tag: DW_TAG_pointer_type, baseType: !100, size: 64)
!100 = !DIBasicType(name: "double", size: 64, encoding: DW_ATE_float)
!101 = !DIDerivedType(tag: DW_TAG_pointer_type, baseType: null, size: 64)
!102 = !DIDerivedType(tag: DW_TAG_pointer_type, baseType: !101, size: 64)
!103 = !{!104, !111, !116, !118, !120, !122, !124, !128, !130, !132, !134, !136, !138, !140, !142, !144, !146, !148, !150, !152, !154, !156, !160, !162, !164, !166, !170, !175, !177, !179, !184, !188, !190, !192, !194, !196, !198, !200, !202, !204, !209, !213, !215, !220, !224, !226, !228, !230, !232, !234, !238, !240, !242, !247, !254, !258, !260, !262, !264, !266, !270, !272, !274, !278, !280, !282, !284, !286, !288, !290, !292, !294, !296, !300, !306, !308, !310, !314, !316, !318, !320, !322, !324, !326, !328, !332, !336, !338, !340, !344, !346, !348, !350, !352, !354, !356, !360, !366, !370, !375, !377, !381, !385, !398, !402, !406, !410, !414, !419, !421, !425, !429, !433, !441, !445, !449, !453, !457, !461, !467, !471, !475, !477, !485, !489, !496, !498, !500, !504, !508, !512, !517, !521, !526, !527, !528, !529, !531, !532, !533, !534, !535, !536, !537, !539, !540, !541, !542, !543, !547, !548, !549, !550, !551, !552, !553, !554, !555, !556, !557, !558, !559, !560, !561, !562, !563, !564, !565, !566, !567, !568, !569, !570, !571, !575, !577, !579, !581, !583, !585, !587, !589, !592, !594, !596, !598, !600, !602, !604, !606, !608, !610, !612, !614, !616, !618, !620, !622, !624, !626, !628, !630, !632, !634, !636, !638, !640, !642, !644, !646, !648, !650, !652, !654, !656, !658, !660, !662, !664, !666, !668, !670, !672, !674, !676, !678, !680, !682, !684, !686}
!104 = !DIImportedEntity(tag: DW_TAG_imported_declaration, scope: !105, entity: !106, file: !107, line: 223)
!105 = !DINamespace(name: "std", scope: null)
!106 = !DISubprogram(name: "abs", linkageName: "_ZL3absi", scope: !107, file: !107, line: 53, type: !108, flags: DIFlagPrototyped, spFlags: DISPFlagLocalToUnit)
!107 = !DIFile(filename: "xstack/llvm-install-debug/lib/clang/9.0.0/include/__clang_cuda_math_forward_declares.h", directory: "/u/NAS_SCRATCH/yc0769")
!108 = !DISubroutineType(types: !109)
!109 = !{!110, !110}
!110 = !DIBasicType(name: "int", size: 32, encoding: DW_ATE_signed)
!111 = !DIImportedEntity(tag: DW_TAG_imported_declaration, scope: !105, entity: !112, file: !107, line: 224)
!112 = !DISubprogram(name: "acos", linkageName: "_ZL4acosf", scope: !107, file: !107, line: 55, type: !113, flags: DIFlagPrototyped, spFlags: DISPFlagLocalToUnit)
!113 = !DISubroutineType(types: !114)
!114 = !{!115, !115}
!115 = !DIBasicType(name: "float", size: 32, encoding: DW_ATE_float)
!116 = !DIImportedEntity(tag: DW_TAG_imported_declaration, scope: !105, entity: !117, file: !107, line: 225)
!117 = !DISubprogram(name: "acosh", linkageName: "_ZL5acoshf", scope: !107, file: !107, line: 57, type: !113, flags: DIFlagPrototyped, spFlags: DISPFlagLocalToUnit)
!118 = !DIImportedEntity(tag: DW_TAG_imported_declaration, scope: !105, entity: !119, file: !107, line: 226)
!119 = !DISubprogram(name: "asin", linkageName: "_ZL4asinf", scope: !107, file: !107, line: 59, type: !113, flags: DIFlagPrototyped, spFlags: DISPFlagLocalToUnit)
!120 = !DIImportedEntity(tag: DW_TAG_imported_declaration, scope: !105, entity: !121, file: !107, line: 227)
!121 = !DISubprogram(name: "asinh", linkageName: "_ZL5asinhf", scope: !107, file: !107, line: 61, type: !113, flags: DIFlagPrototyped, spFlags: DISPFlagLocalToUnit)
!122 = !DIImportedEntity(tag: DW_TAG_imported_declaration, scope: !105, entity: !123, file: !107, line: 228)
!123 = !DISubprogram(name: "atan", linkageName: "_ZL4atanf", scope: !107, file: !107, line: 65, type: !113, flags: DIFlagPrototyped, spFlags: DISPFlagLocalToUnit)
!124 = !DIImportedEntity(tag: DW_TAG_imported_declaration, scope: !105, entity: !125, file: !107, line: 229)
!125 = !DISubprogram(name: "atan2", linkageName: "_ZL5atan2ff", scope: !107, file: !107, line: 63, type: !126, flags: DIFlagPrototyped, spFlags: DISPFlagLocalToUnit)
!126 = !DISubroutineType(types: !127)
!127 = !{!115, !115, !115}
!128 = !DIImportedEntity(tag: DW_TAG_imported_declaration, scope: !105, entity: !129, file: !107, line: 230)
!129 = !DISubprogram(name: "atanh", linkageName: "_ZL5atanhf", scope: !107, file: !107, line: 67, type: !113, flags: DIFlagPrototyped, spFlags: DISPFlagLocalToUnit)
!130 = !DIImportedEntity(tag: DW_TAG_imported_declaration, scope: !105, entity: !131, file: !107, line: 231)
!131 = !DISubprogram(name: "cbrt", linkageName: "_ZL4cbrtf", scope: !107, file: !107, line: 69, type: !113, flags: DIFlagPrototyped, spFlags: DISPFlagLocalToUnit)
!132 = !DIImportedEntity(tag: DW_TAG_imported_declaration, scope: !105, entity: !133, file: !107, line: 232)
!133 = !DISubprogram(name: "ceil", linkageName: "_ZL4ceilf", scope: !107, file: !107, line: 71, type: !113, flags: DIFlagPrototyped, spFlags: DISPFlagLocalToUnit)
!134 = !DIImportedEntity(tag: DW_TAG_imported_declaration, scope: !105, entity: !135, file: !107, line: 233)
!135 = !DISubprogram(name: "copysign", linkageName: "_ZL8copysignff", scope: !107, file: !107, line: 73, type: !126, flags: DIFlagPrototyped, spFlags: DISPFlagLocalToUnit)
!136 = !DIImportedEntity(tag: DW_TAG_imported_declaration, scope: !105, entity: !137, file: !107, line: 234)
!137 = !DISubprogram(name: "cos", linkageName: "_ZL3cosf", scope: !107, file: !107, line: 75, type: !113, flags: DIFlagPrototyped, spFlags: DISPFlagLocalToUnit)
!138 = !DIImportedEntity(tag: DW_TAG_imported_declaration, scope: !105, entity: !139, file: !107, line: 235)
!139 = !DISubprogram(name: "cosh", linkageName: "_ZL4coshf", scope: !107, file: !107, line: 77, type: !113, flags: DIFlagPrototyped, spFlags: DISPFlagLocalToUnit)
!140 = !DIImportedEntity(tag: DW_TAG_imported_declaration, scope: !105, entity: !141, file: !107, line: 236)
!141 = !DISubprogram(name: "erf", linkageName: "_ZL3erff", scope: !107, file: !107, line: 81, type: !113, flags: DIFlagPrototyped, spFlags: DISPFlagLocalToUnit)
!142 = !DIImportedEntity(tag: DW_TAG_imported_declaration, scope: !105, entity: !143, file: !107, line: 237)
!143 = !DISubprogram(name: "erfc", linkageName: "_ZL4erfcf", scope: !107, file: !107, line: 79, type: !113, flags: DIFlagPrototyped, spFlags: DISPFlagLocalToUnit)
!144 = !DIImportedEntity(tag: DW_TAG_imported_declaration, scope: !105, entity: !145, file: !107, line: 238)
!145 = !DISubprogram(name: "exp", linkageName: "_ZL3expf", scope: !107, file: !107, line: 85, type: !113, flags: DIFlagPrototyped, spFlags: DISPFlagLocalToUnit)
!146 = !DIImportedEntity(tag: DW_TAG_imported_declaration, scope: !105, entity: !147, file: !107, line: 239)
!147 = !DISubprogram(name: "exp2", linkageName: "_ZL4exp2f", scope: !107, file: !107, line: 83, type: !113, flags: DIFlagPrototyped, spFlags: DISPFlagLocalToUnit)
!148 = !DIImportedEntity(tag: DW_TAG_imported_declaration, scope: !105, entity: !149, file: !107, line: 240)
!149 = !DISubprogram(name: "expm1", linkageName: "_ZL5expm1f", scope: !107, file: !107, line: 87, type: !113, flags: DIFlagPrototyped, spFlags: DISPFlagLocalToUnit)
!150 = !DIImportedEntity(tag: DW_TAG_imported_declaration, scope: !105, entity: !151, file: !107, line: 241)
!151 = !DISubprogram(name: "fabs", linkageName: "_ZL4fabsf", scope: !107, file: !107, line: 89, type: !113, flags: DIFlagPrototyped, spFlags: DISPFlagLocalToUnit)
!152 = !DIImportedEntity(tag: DW_TAG_imported_declaration, scope: !105, entity: !153, file: !107, line: 242)
!153 = !DISubprogram(name: "fdim", linkageName: "_ZL4fdimff", scope: !107, file: !107, line: 91, type: !126, flags: DIFlagPrototyped, spFlags: DISPFlagLocalToUnit)
!154 = !DIImportedEntity(tag: DW_TAG_imported_declaration, scope: !105, entity: !155, file: !107, line: 243)
!155 = !DISubprogram(name: "floor", linkageName: "_ZL5floorf", scope: !107, file: !107, line: 93, type: !113, flags: DIFlagPrototyped, spFlags: DISPFlagLocalToUnit)
!156 = !DIImportedEntity(tag: DW_TAG_imported_declaration, scope: !105, entity: !157, file: !107, line: 244)
!157 = !DISubprogram(name: "fma", linkageName: "_ZL3fmafff", scope: !107, file: !107, line: 95, type: !158, flags: DIFlagPrototyped, spFlags: DISPFlagLocalToUnit)
!158 = !DISubroutineType(types: !159)
!159 = !{!115, !115, !115, !115}
!160 = !DIImportedEntity(tag: DW_TAG_imported_declaration, scope: !105, entity: !161, file: !107, line: 245)
!161 = !DISubprogram(name: "fmax", linkageName: "_ZL4fmaxff", scope: !107, file: !107, line: 97, type: !126, flags: DIFlagPrototyped, spFlags: DISPFlagLocalToUnit)
!162 = !DIImportedEntity(tag: DW_TAG_imported_declaration, scope: !105, entity: !163, file: !107, line: 246)
!163 = !DISubprogram(name: "fmin", linkageName: "_ZL4fminff", scope: !107, file: !107, line: 99, type: !126, flags: DIFlagPrototyped, spFlags: DISPFlagLocalToUnit)
!164 = !DIImportedEntity(tag: DW_TAG_imported_declaration, scope: !105, entity: !165, file: !107, line: 247)
!165 = !DISubprogram(name: "fmod", linkageName: "_ZL4fmodff", scope: !107, file: !107, line: 101, type: !126, flags: DIFlagPrototyped, spFlags: DISPFlagLocalToUnit)
!166 = !DIImportedEntity(tag: DW_TAG_imported_declaration, scope: !105, entity: !167, file: !107, line: 248)
!167 = !DISubprogram(name: "fpclassify", linkageName: "_ZL10fpclassifyf", scope: !107, file: !107, line: 103, type: !168, flags: DIFlagPrototyped, spFlags: DISPFlagLocalToUnit)
!168 = !DISubroutineType(types: !169)
!169 = !{!110, !115}
!170 = !DIImportedEntity(tag: DW_TAG_imported_declaration, scope: !105, entity: !171, file: !107, line: 249)
!171 = !DISubprogram(name: "frexp", linkageName: "_ZL5frexpfPi", scope: !107, file: !107, line: 105, type: !172, flags: DIFlagPrototyped, spFlags: DISPFlagLocalToUnit)
!172 = !DISubroutineType(types: !173)
!173 = !{!115, !115, !174}
!174 = !DIDerivedType(tag: DW_TAG_pointer_type, baseType: !110, size: 64)
!175 = !DIImportedEntity(tag: DW_TAG_imported_declaration, scope: !105, entity: !176, file: !107, line: 250)
!176 = !DISubprogram(name: "hypot", linkageName: "_ZL5hypotff", scope: !107, file: !107, line: 107, type: !126, flags: DIFlagPrototyped, spFlags: DISPFlagLocalToUnit)
!177 = !DIImportedEntity(tag: DW_TAG_imported_declaration, scope: !105, entity: !178, file: !107, line: 251)
!178 = !DISubprogram(name: "ilogb", linkageName: "_ZL5ilogbf", scope: !107, file: !107, line: 109, type: !168, flags: DIFlagPrototyped, spFlags: DISPFlagLocalToUnit)
!179 = !DIImportedEntity(tag: DW_TAG_imported_declaration, scope: !105, entity: !180, file: !107, line: 252)
!180 = !DISubprogram(name: "isfinite", linkageName: "_ZL8isfinitef", scope: !107, file: !107, line: 114, type: !181, flags: DIFlagPrototyped, spFlags: DISPFlagLocalToUnit)
!181 = !DISubroutineType(types: !182)
!182 = !{!183, !115}
!183 = !DIBasicType(name: "bool", size: 8, encoding: DW_ATE_boolean)
!184 = !DIImportedEntity(tag: DW_TAG_imported_declaration, scope: !105, entity: !185, file: !107, line: 253)
!185 = !DISubprogram(name: "isgreater", linkageName: "_ZL9isgreaterff", scope: !107, file: !107, line: 118, type: !186, flags: DIFlagPrototyped, spFlags: DISPFlagLocalToUnit)
!186 = !DISubroutineType(types: !187)
!187 = !{!183, !115, !115}
!188 = !DIImportedEntity(tag: DW_TAG_imported_declaration, scope: !105, entity: !189, file: !107, line: 254)
!189 = !DISubprogram(name: "isgreaterequal", linkageName: "_ZL14isgreaterequalff", scope: !107, file: !107, line: 117, type: !186, flags: DIFlagPrototyped, spFlags: DISPFlagLocalToUnit)
!190 = !DIImportedEntity(tag: DW_TAG_imported_declaration, scope: !105, entity: !191, file: !107, line: 255)
!191 = !DISubprogram(name: "isinf", linkageName: "_ZL5isinff", scope: !107, file: !107, line: 123, type: !181, flags: DIFlagPrototyped, spFlags: DISPFlagLocalToUnit)
!192 = !DIImportedEntity(tag: DW_TAG_imported_declaration, scope: !105, entity: !193, file: !107, line: 256)
!193 = !DISubprogram(name: "isless", linkageName: "_ZL6islessff", scope: !107, file: !107, line: 127, type: !186, flags: DIFlagPrototyped, spFlags: DISPFlagLocalToUnit)
!194 = !DIImportedEntity(tag: DW_TAG_imported_declaration, scope: !105, entity: !195, file: !107, line: 257)
!195 = !DISubprogram(name: "islessequal", linkageName: "_ZL11islessequalff", scope: !107, file: !107, line: 126, type: !186, flags: DIFlagPrototyped, spFlags: DISPFlagLocalToUnit)
!196 = !DIImportedEntity(tag: DW_TAG_imported_declaration, scope: !105, entity: !197, file: !107, line: 258)
!197 = !DISubprogram(name: "islessgreater", linkageName: "_ZL13islessgreaterff", scope: !107, file: !107, line: 129, type: !186, flags: DIFlagPrototyped, spFlags: DISPFlagLocalToUnit)
!198 = !DIImportedEntity(tag: DW_TAG_imported_declaration, scope: !105, entity: !199, file: !107, line: 259)
!199 = !DISubprogram(name: "isnan", linkageName: "_ZL5isnanf", scope: !107, file: !107, line: 134, type: !181, flags: DIFlagPrototyped, spFlags: DISPFlagLocalToUnit)
!200 = !DIImportedEntity(tag: DW_TAG_imported_declaration, scope: !105, entity: !201, file: !107, line: 260)
!201 = !DISubprogram(name: "isnormal", linkageName: "_ZL8isnormalf", scope: !107, file: !107, line: 136, type: !181, flags: DIFlagPrototyped, spFlags: DISPFlagLocalToUnit)
!202 = !DIImportedEntity(tag: DW_TAG_imported_declaration, scope: !105, entity: !203, file: !107, line: 261)
!203 = !DISubprogram(name: "isunordered", linkageName: "_ZL11isunorderedff", scope: !107, file: !107, line: 138, type: !186, flags: DIFlagPrototyped, spFlags: DISPFlagLocalToUnit)
!204 = !DIImportedEntity(tag: DW_TAG_imported_declaration, scope: !105, entity: !205, file: !107, line: 262)
!205 = !DISubprogram(name: "labs", linkageName: "_ZL4labsl", scope: !107, file: !107, line: 139, type: !206, flags: DIFlagPrototyped, spFlags: DISPFlagLocalToUnit)
!206 = !DISubroutineType(types: !207)
!207 = !{!208, !208}
!208 = !DIBasicType(name: "long int", size: 64, encoding: DW_ATE_signed)
!209 = !DIImportedEntity(tag: DW_TAG_imported_declaration, scope: !105, entity: !210, file: !107, line: 263)
!210 = !DISubprogram(name: "ldexp", linkageName: "_ZL5ldexpfi", scope: !107, file: !107, line: 141, type: !211, flags: DIFlagPrototyped, spFlags: DISPFlagLocalToUnit)
!211 = !DISubroutineType(types: !212)
!212 = !{!115, !115, !110}
!213 = !DIImportedEntity(tag: DW_TAG_imported_declaration, scope: !105, entity: !214, file: !107, line: 264)
!214 = !DISubprogram(name: "lgamma", linkageName: "_ZL6lgammaf", scope: !107, file: !107, line: 143, type: !113, flags: DIFlagPrototyped, spFlags: DISPFlagLocalToUnit)
!215 = !DIImportedEntity(tag: DW_TAG_imported_declaration, scope: !105, entity: !216, file: !107, line: 265)
!216 = !DISubprogram(name: "llabs", linkageName: "_ZL5llabsx", scope: !107, file: !107, line: 144, type: !217, flags: DIFlagPrototyped, spFlags: DISPFlagLocalToUnit)
!217 = !DISubroutineType(types: !218)
!218 = !{!219, !219}
!219 = !DIBasicType(name: "long long int", size: 64, encoding: DW_ATE_signed)
!220 = !DIImportedEntity(tag: DW_TAG_imported_declaration, scope: !105, entity: !221, file: !107, line: 266)
!221 = !DISubprogram(name: "llrint", linkageName: "_ZL6llrintf", scope: !107, file: !107, line: 146, type: !222, flags: DIFlagPrototyped, spFlags: DISPFlagLocalToUnit)
!222 = !DISubroutineType(types: !223)
!223 = !{!219, !115}
!224 = !DIImportedEntity(tag: DW_TAG_imported_declaration, scope: !105, entity: !225, file: !107, line: 267)
!225 = !DISubprogram(name: "log", linkageName: "_ZL3logf", scope: !107, file: !107, line: 159, type: !113, flags: DIFlagPrototyped, spFlags: DISPFlagLocalToUnit)
!226 = !DIImportedEntity(tag: DW_TAG_imported_declaration, scope: !105, entity: !227, file: !107, line: 268)
!227 = !DISubprogram(name: "log10", linkageName: "_ZL5log10f", scope: !107, file: !107, line: 148, type: !113, flags: DIFlagPrototyped, spFlags: DISPFlagLocalToUnit)
!228 = !DIImportedEntity(tag: DW_TAG_imported_declaration, scope: !105, entity: !229, file: !107, line: 269)
!229 = !DISubprogram(name: "log1p", linkageName: "_ZL5log1pf", scope: !107, file: !107, line: 150, type: !113, flags: DIFlagPrototyped, spFlags: DISPFlagLocalToUnit)
!230 = !DIImportedEntity(tag: DW_TAG_imported_declaration, scope: !105, entity: !231, file: !107, line: 270)
!231 = !DISubprogram(name: "log2", linkageName: "_ZL4log2f", scope: !107, file: !107, line: 152, type: !113, flags: DIFlagPrototyped, spFlags: DISPFlagLocalToUnit)
!232 = !DIImportedEntity(tag: DW_TAG_imported_declaration, scope: !105, entity: !233, file: !107, line: 271)
!233 = !DISubprogram(name: "logb", linkageName: "_ZL4logbf", scope: !107, file: !107, line: 154, type: !113, flags: DIFlagPrototyped, spFlags: DISPFlagLocalToUnit)
!234 = !DIImportedEntity(tag: DW_TAG_imported_declaration, scope: !105, entity: !235, file: !107, line: 272)
!235 = !DISubprogram(name: "lrint", linkageName: "_ZL5lrintf", scope: !107, file: !107, line: 161, type: !236, flags: DIFlagPrototyped, spFlags: DISPFlagLocalToUnit)
!236 = !DISubroutineType(types: !237)
!237 = !{!208, !115}
!238 = !DIImportedEntity(tag: DW_TAG_imported_declaration, scope: !105, entity: !239, file: !107, line: 273)
!239 = !DISubprogram(name: "lround", linkageName: "_ZL6lroundf", scope: !107, file: !107, line: 163, type: !236, flags: DIFlagPrototyped, spFlags: DISPFlagLocalToUnit)
!240 = !DIImportedEntity(tag: DW_TAG_imported_declaration, scope: !105, entity: !241, file: !107, line: 274)
!241 = !DISubprogram(name: "llround", linkageName: "_ZL7llroundf", scope: !107, file: !107, line: 164, type: !222, flags: DIFlagPrototyped, spFlags: DISPFlagLocalToUnit)
!242 = !DIImportedEntity(tag: DW_TAG_imported_declaration, scope: !105, entity: !243, file: !107, line: 275)
!243 = !DISubprogram(name: "modf", linkageName: "_ZL4modffPf", scope: !107, file: !107, line: 166, type: !244, flags: DIFlagPrototyped, spFlags: DISPFlagLocalToUnit)
!244 = !DISubroutineType(types: !245)
!245 = !{!115, !115, !246}
!246 = !DIDerivedType(tag: DW_TAG_pointer_type, baseType: !115, size: 64)
!247 = !DIImportedEntity(tag: DW_TAG_imported_declaration, scope: !105, entity: !248, file: !107, line: 276)
!248 = !DISubprogram(name: "nan", linkageName: "_ZL3nanPKc", scope: !107, file: !107, line: 167, type: !249, flags: DIFlagPrototyped, spFlags: DISPFlagLocalToUnit)
!249 = !DISubroutineType(types: !250)
!250 = !{!100, !251}
!251 = !DIDerivedType(tag: DW_TAG_pointer_type, baseType: !252, size: 64)
!252 = !DIDerivedType(tag: DW_TAG_const_type, baseType: !253)
!253 = !DIBasicType(name: "char", size: 8, encoding: DW_ATE_signed_char)
!254 = !DIImportedEntity(tag: DW_TAG_imported_declaration, scope: !105, entity: !255, file: !107, line: 277)
!255 = !DISubprogram(name: "nanf", linkageName: "_ZL4nanfPKc", scope: !107, file: !107, line: 168, type: !256, flags: DIFlagPrototyped, spFlags: DISPFlagLocalToUnit)
!256 = !DISubroutineType(types: !257)
!257 = !{!115, !251}
!258 = !DIImportedEntity(tag: DW_TAG_imported_declaration, scope: !105, entity: !259, file: !107, line: 278)
!259 = !DISubprogram(name: "nearbyint", linkageName: "_ZL9nearbyintf", scope: !107, file: !107, line: 170, type: !113, flags: DIFlagPrototyped, spFlags: DISPFlagLocalToUnit)
!260 = !DIImportedEntity(tag: DW_TAG_imported_declaration, scope: !105, entity: !261, file: !107, line: 279)
!261 = !DISubprogram(name: "nextafter", linkageName: "_ZL9nextafterff", scope: !107, file: !107, line: 172, type: !126, flags: DIFlagPrototyped, spFlags: DISPFlagLocalToUnit)
!262 = !DIImportedEntity(tag: DW_TAG_imported_declaration, scope: !105, entity: !263, file: !107, line: 280)
!263 = !DISubprogram(name: "pow", linkageName: "_ZL3powfi", scope: !107, file: !107, line: 176, type: !211, flags: DIFlagPrototyped, spFlags: DISPFlagLocalToUnit)
!264 = !DIImportedEntity(tag: DW_TAG_imported_declaration, scope: !105, entity: !265, file: !107, line: 281)
!265 = !DISubprogram(name: "remainder", linkageName: "_ZL9remainderff", scope: !107, file: !107, line: 178, type: !126, flags: DIFlagPrototyped, spFlags: DISPFlagLocalToUnit)
!266 = !DIImportedEntity(tag: DW_TAG_imported_declaration, scope: !105, entity: !267, file: !107, line: 282)
!267 = !DISubprogram(name: "remquo", linkageName: "_ZL6remquoffPi", scope: !107, file: !107, line: 180, type: !268, flags: DIFlagPrototyped, spFlags: DISPFlagLocalToUnit)
!268 = !DISubroutineType(types: !269)
!269 = !{!115, !115, !115, !174}
!270 = !DIImportedEntity(tag: DW_TAG_imported_declaration, scope: !105, entity: !271, file: !107, line: 283)
!271 = !DISubprogram(name: "rint", linkageName: "_ZL4rintf", scope: !107, file: !107, line: 182, type: !113, flags: DIFlagPrototyped, spFlags: DISPFlagLocalToUnit)
!272 = !DIImportedEntity(tag: DW_TAG_imported_declaration, scope: !105, entity: !273, file: !107, line: 284)
!273 = !DISubprogram(name: "round", linkageName: "_ZL5roundf", scope: !107, file: !107, line: 184, type: !113, flags: DIFlagPrototyped, spFlags: DISPFlagLocalToUnit)
!274 = !DIImportedEntity(tag: DW_TAG_imported_declaration, scope: !105, entity: !275, file: !107, line: 285)
!275 = !DISubprogram(name: "scalbln", linkageName: "_ZL7scalblnfl", scope: !107, file: !107, line: 186, type: !276, flags: DIFlagPrototyped, spFlags: DISPFlagLocalToUnit)
!276 = !DISubroutineType(types: !277)
!277 = !{!115, !115, !208}
!278 = !DIImportedEntity(tag: DW_TAG_imported_declaration, scope: !105, entity: !279, file: !107, line: 286)
!279 = !DISubprogram(name: "scalbn", linkageName: "_ZL6scalbnfi", scope: !107, file: !107, line: 188, type: !211, flags: DIFlagPrototyped, spFlags: DISPFlagLocalToUnit)
!280 = !DIImportedEntity(tag: DW_TAG_imported_declaration, scope: !105, entity: !281, file: !107, line: 287)
!281 = !DISubprogram(name: "signbit", linkageName: "_ZL7signbitf", scope: !107, file: !107, line: 190, type: !181, flags: DIFlagPrototyped, spFlags: DISPFlagLocalToUnit)
!282 = !DIImportedEntity(tag: DW_TAG_imported_declaration, scope: !105, entity: !283, file: !107, line: 288)
!283 = !DISubprogram(name: "sin", linkageName: "_ZL3sinf", scope: !107, file: !107, line: 192, type: !113, flags: DIFlagPrototyped, spFlags: DISPFlagLocalToUnit)
!284 = !DIImportedEntity(tag: DW_TAG_imported_declaration, scope: !105, entity: !285, file: !107, line: 289)
!285 = !DISubprogram(name: "sinh", linkageName: "_ZL4sinhf", scope: !107, file: !107, line: 194, type: !113, flags: DIFlagPrototyped, spFlags: DISPFlagLocalToUnit)
!286 = !DIImportedEntity(tag: DW_TAG_imported_declaration, scope: !105, entity: !287, file: !107, line: 290)
!287 = !DISubprogram(name: "sqrt", linkageName: "_ZL4sqrtf", scope: !107, file: !107, line: 196, type: !113, flags: DIFlagPrototyped, spFlags: DISPFlagLocalToUnit)
!288 = !DIImportedEntity(tag: DW_TAG_imported_declaration, scope: !105, entity: !289, file: !107, line: 291)
!289 = !DISubprogram(name: "tan", linkageName: "_ZL3tanf", scope: !107, file: !107, line: 198, type: !113, flags: DIFlagPrototyped, spFlags: DISPFlagLocalToUnit)
!290 = !DIImportedEntity(tag: DW_TAG_imported_declaration, scope: !105, entity: !291, file: !107, line: 292)
!291 = !DISubprogram(name: "tanh", linkageName: "_ZL4tanhf", scope: !107, file: !107, line: 200, type: !113, flags: DIFlagPrototyped, spFlags: DISPFlagLocalToUnit)
!292 = !DIImportedEntity(tag: DW_TAG_imported_declaration, scope: !105, entity: !293, file: !107, line: 293)
!293 = !DISubprogram(name: "tgamma", linkageName: "_ZL6tgammaf", scope: !107, file: !107, line: 202, type: !113, flags: DIFlagPrototyped, spFlags: DISPFlagLocalToUnit)
!294 = !DIImportedEntity(tag: DW_TAG_imported_declaration, scope: !105, entity: !295, file: !107, line: 294)
!295 = !DISubprogram(name: "trunc", linkageName: "_ZL5truncf", scope: !107, file: !107, line: 204, type: !113, flags: DIFlagPrototyped, spFlags: DISPFlagLocalToUnit)
!296 = !DIImportedEntity(tag: DW_TAG_imported_declaration, scope: !105, entity: !297, file: !299, line: 52)
!297 = !DISubprogram(name: "abs", scope: !298, file: !298, line: 840, type: !108, flags: DIFlagPrototyped, spFlags: 0)
!298 = !DIFile(filename: "/usr/include/stdlib.h", directory: "")
!299 = !DIFile(filename: "/usr/lib/gcc/x86_64-linux-gnu/9/../../../../include/c++/9/bits/std_abs.h", directory: "")
!300 = !DIImportedEntity(tag: DW_TAG_imported_declaration, scope: !105, entity: !301, file: !305, line: 83)
!301 = !DISubprogram(name: "acos", scope: !302, file: !302, line: 53, type: !303, flags: DIFlagPrototyped, spFlags: 0)
!302 = !DIFile(filename: "/usr/include/x86_64-linux-gnu/bits/mathcalls.h", directory: "")
!303 = !DISubroutineType(types: !304)
!304 = !{!100, !100}
!305 = !DIFile(filename: "/usr/lib/gcc/x86_64-linux-gnu/9/../../../../include/c++/9/cmath", directory: "")
!306 = !DIImportedEntity(tag: DW_TAG_imported_declaration, scope: !105, entity: !307, file: !305, line: 102)
!307 = !DISubprogram(name: "asin", scope: !302, file: !302, line: 55, type: !303, flags: DIFlagPrototyped, spFlags: 0)
!308 = !DIImportedEntity(tag: DW_TAG_imported_declaration, scope: !105, entity: !309, file: !305, line: 121)
!309 = !DISubprogram(name: "atan", scope: !302, file: !302, line: 57, type: !303, flags: DIFlagPrototyped, spFlags: 0)
!310 = !DIImportedEntity(tag: DW_TAG_imported_declaration, scope: !105, entity: !311, file: !305, line: 140)
!311 = !DISubprogram(name: "atan2", scope: !302, file: !302, line: 59, type: !312, flags: DIFlagPrototyped, spFlags: 0)
!312 = !DISubroutineType(types: !313)
!313 = !{!100, !100, !100}
!314 = !DIImportedEntity(tag: DW_TAG_imported_declaration, scope: !105, entity: !315, file: !305, line: 161)
!315 = !DISubprogram(name: "ceil", scope: !302, file: !302, line: 159, type: !303, flags: DIFlagPrototyped, spFlags: 0)
!316 = !DIImportedEntity(tag: DW_TAG_imported_declaration, scope: !105, entity: !317, file: !305, line: 180)
!317 = !DISubprogram(name: "cos", scope: !302, file: !302, line: 62, type: !303, flags: DIFlagPrototyped, spFlags: 0)
!318 = !DIImportedEntity(tag: DW_TAG_imported_declaration, scope: !105, entity: !319, file: !305, line: 199)
!319 = !DISubprogram(name: "cosh", scope: !302, file: !302, line: 71, type: !303, flags: DIFlagPrototyped, spFlags: 0)
!320 = !DIImportedEntity(tag: DW_TAG_imported_declaration, scope: !105, entity: !321, file: !305, line: 218)
!321 = !DISubprogram(name: "exp", scope: !302, file: !302, line: 95, type: !303, flags: DIFlagPrototyped, spFlags: 0)
!322 = !DIImportedEntity(tag: DW_TAG_imported_declaration, scope: !105, entity: !323, file: !305, line: 237)
!323 = !DISubprogram(name: "fabs", scope: !302, file: !302, line: 162, type: !303, flags: DIFlagPrototyped, spFlags: 0)
!324 = !DIImportedEntity(tag: DW_TAG_imported_declaration, scope: !105, entity: !325, file: !305, line: 256)
!325 = !DISubprogram(name: "floor", scope: !302, file: !302, line: 165, type: !303, flags: DIFlagPrototyped, spFlags: 0)
!326 = !DIImportedEntity(tag: DW_TAG_imported_declaration, scope: !105, entity: !327, file: !305, line: 275)
!327 = !DISubprogram(name: "fmod", scope: !302, file: !302, line: 168, type: !312, flags: DIFlagPrototyped, spFlags: 0)
!328 = !DIImportedEntity(tag: DW_TAG_imported_declaration, scope: !105, entity: !329, file: !305, line: 296)
!329 = !DISubprogram(name: "frexp", scope: !302, file: !302, line: 98, type: !330, flags: DIFlagPrototyped, spFlags: 0)
!330 = !DISubroutineType(types: !331)
!331 = !{!100, !100, !174}
!332 = !DIImportedEntity(tag: DW_TAG_imported_declaration, scope: !105, entity: !333, file: !305, line: 315)
!333 = !DISubprogram(name: "ldexp", scope: !302, file: !302, line: 101, type: !334, flags: DIFlagPrototyped, spFlags: 0)
!334 = !DISubroutineType(types: !335)
!335 = !{!100, !100, !110}
!336 = !DIImportedEntity(tag: DW_TAG_imported_declaration, scope: !105, entity: !337, file: !305, line: 334)
!337 = !DISubprogram(name: "log", scope: !302, file: !302, line: 104, type: !303, flags: DIFlagPrototyped, spFlags: 0)
!338 = !DIImportedEntity(tag: DW_TAG_imported_declaration, scope: !105, entity: !339, file: !305, line: 353)
!339 = !DISubprogram(name: "log10", scope: !302, file: !302, line: 107, type: !303, flags: DIFlagPrototyped, spFlags: 0)
!340 = !DIImportedEntity(tag: DW_TAG_imported_declaration, scope: !105, entity: !341, file: !305, line: 372)
!341 = !DISubprogram(name: "modf", scope: !302, file: !302, line: 110, type: !342, flags: DIFlagPrototyped, spFlags: 0)
!342 = !DISubroutineType(types: !343)
!343 = !{!100, !100, !99}
!344 = !DIImportedEntity(tag: DW_TAG_imported_declaration, scope: !105, entity: !345, file: !305, line: 384)
!345 = !DISubprogram(name: "pow", scope: !302, file: !302, line: 140, type: !312, flags: DIFlagPrototyped, spFlags: 0)
!346 = !DIImportedEntity(tag: DW_TAG_imported_declaration, scope: !105, entity: !347, file: !305, line: 421)
!347 = !DISubprogram(name: "sin", scope: !302, file: !302, line: 64, type: !303, flags: DIFlagPrototyped, spFlags: 0)
!348 = !DIImportedEntity(tag: DW_TAG_imported_declaration, scope: !105, entity: !349, file: !305, line: 440)
!349 = !DISubprogram(name: "sinh", scope: !302, file: !302, line: 73, type: !303, flags: DIFlagPrototyped, spFlags: 0)
!350 = !DIImportedEntity(tag: DW_TAG_imported_declaration, scope: !105, entity: !351, file: !305, line: 459)
!351 = !DISubprogram(name: "sqrt", scope: !302, file: !302, line: 143, type: !303, flags: DIFlagPrototyped, spFlags: 0)
!352 = !DIImportedEntity(tag: DW_TAG_imported_declaration, scope: !105, entity: !353, file: !305, line: 478)
!353 = !DISubprogram(name: "tan", scope: !302, file: !302, line: 66, type: !303, flags: DIFlagPrototyped, spFlags: 0)
!354 = !DIImportedEntity(tag: DW_TAG_imported_declaration, scope: !105, entity: !355, file: !305, line: 497)
!355 = !DISubprogram(name: "tanh", scope: !302, file: !302, line: 75, type: !303, flags: DIFlagPrototyped, spFlags: 0)
!356 = !DIImportedEntity(tag: DW_TAG_imported_declaration, scope: !105, entity: !357, file: !359, line: 127)
!357 = !DIDerivedType(tag: DW_TAG_typedef, name: "div_t", file: !298, line: 62, baseType: !358)
!358 = !DICompositeType(tag: DW_TAG_structure_type, file: !298, line: 58, flags: DIFlagFwdDecl, identifier: "_ZTS5div_t")
!359 = !DIFile(filename: "/usr/lib/gcc/x86_64-linux-gnu/9/../../../../include/c++/9/cstdlib", directory: "")
!360 = !DIImportedEntity(tag: DW_TAG_imported_declaration, scope: !105, entity: !361, file: !359, line: 128)
!361 = !DIDerivedType(tag: DW_TAG_typedef, name: "ldiv_t", file: !298, line: 70, baseType: !362)
!362 = distinct !DICompositeType(tag: DW_TAG_structure_type, file: !298, line: 66, size: 128, flags: DIFlagTypePassByValue, elements: !363, identifier: "_ZTS6ldiv_t")
!363 = !{!364, !365}
!364 = !DIDerivedType(tag: DW_TAG_member, name: "quot", scope: !362, file: !298, line: 68, baseType: !208, size: 64)
!365 = !DIDerivedType(tag: DW_TAG_member, name: "rem", scope: !362, file: !298, line: 69, baseType: !208, size: 64, offset: 64)
!366 = !DIImportedEntity(tag: DW_TAG_imported_declaration, scope: !105, entity: !367, file: !359, line: 130)
!367 = !DISubprogram(name: "abort", scope: !298, file: !298, line: 591, type: !368, flags: DIFlagPrototyped | DIFlagNoReturn, spFlags: 0)
!368 = !DISubroutineType(types: !369)
!369 = !{null}
!370 = !DIImportedEntity(tag: DW_TAG_imported_declaration, scope: !105, entity: !371, file: !359, line: 134)
!371 = !DISubprogram(name: "atexit", scope: !298, file: !298, line: 595, type: !372, flags: DIFlagPrototyped, spFlags: 0)
!372 = !DISubroutineType(types: !373)
!373 = !{!110, !374}
!374 = !DIDerivedType(tag: DW_TAG_pointer_type, baseType: !368, size: 64)
!375 = !DIImportedEntity(tag: DW_TAG_imported_declaration, scope: !105, entity: !376, file: !359, line: 140)
!376 = !DISubprogram(name: "atof", scope: !298, file: !298, line: 101, type: !249, flags: DIFlagPrototyped, spFlags: 0)
!377 = !DIImportedEntity(tag: DW_TAG_imported_declaration, scope: !105, entity: !378, file: !359, line: 141)
!378 = !DISubprogram(name: "atoi", scope: !298, file: !298, line: 104, type: !379, flags: DIFlagPrototyped, spFlags: 0)
!379 = !DISubroutineType(types: !380)
!380 = !{!110, !251}
!381 = !DIImportedEntity(tag: DW_TAG_imported_declaration, scope: !105, entity: !382, file: !359, line: 142)
!382 = !DISubprogram(name: "atol", scope: !298, file: !298, line: 107, type: !383, flags: DIFlagPrototyped, spFlags: 0)
!383 = !DISubroutineType(types: !384)
!384 = !{!208, !251}
!385 = !DIImportedEntity(tag: DW_TAG_imported_declaration, scope: !105, entity: !386, file: !359, line: 143)
!386 = !DISubprogram(name: "bsearch", scope: !298, file: !298, line: 820, type: !387, flags: DIFlagPrototyped, spFlags: 0)
!387 = !DISubroutineType(types: !388)
!388 = !{!101, !389, !389, !391, !391, !394}
!389 = !DIDerivedType(tag: DW_TAG_pointer_type, baseType: !390, size: 64)
!390 = !DIDerivedType(tag: DW_TAG_const_type, baseType: null)
!391 = !DIDerivedType(tag: DW_TAG_typedef, name: "size_t", file: !392, line: 46, baseType: !393)
!392 = !DIFile(filename: "xstack/llvm-install-debug/lib/clang/9.0.0/include/stddef.h", directory: "/u/NAS_SCRATCH/yc0769")
!393 = !DIBasicType(name: "long unsigned int", size: 64, encoding: DW_ATE_unsigned)
!394 = !DIDerivedType(tag: DW_TAG_typedef, name: "__compar_fn_t", file: !298, line: 808, baseType: !395)
!395 = !DIDerivedType(tag: DW_TAG_pointer_type, baseType: !396, size: 64)
!396 = !DISubroutineType(types: !397)
!397 = !{!110, !389, !389}
!398 = !DIImportedEntity(tag: DW_TAG_imported_declaration, scope: !105, entity: !399, file: !359, line: 144)
!399 = !DISubprogram(name: "calloc", scope: !298, file: !298, line: 542, type: !400, flags: DIFlagPrototyped, spFlags: 0)
!400 = !DISubroutineType(types: !401)
!401 = !{!101, !391, !391}
!402 = !DIImportedEntity(tag: DW_TAG_imported_declaration, scope: !105, entity: !403, file: !359, line: 145)
!403 = !DISubprogram(name: "div", scope: !298, file: !298, line: 852, type: !404, flags: DIFlagPrototyped, spFlags: 0)
!404 = !DISubroutineType(types: !405)
!405 = !{!357, !110, !110}
!406 = !DIImportedEntity(tag: DW_TAG_imported_declaration, scope: !105, entity: !407, file: !359, line: 146)
!407 = !DISubprogram(name: "exit", scope: !298, file: !298, line: 617, type: !408, flags: DIFlagPrototyped | DIFlagNoReturn, spFlags: 0)
!408 = !DISubroutineType(types: !409)
!409 = !{null, !110}
!410 = !DIImportedEntity(tag: DW_TAG_imported_declaration, scope: !105, entity: !411, file: !359, line: 147)
!411 = !DISubprogram(name: "free", scope: !298, file: !298, line: 565, type: !412, flags: DIFlagPrototyped, spFlags: 0)
!412 = !DISubroutineType(types: !413)
!413 = !{null, !101}
!414 = !DIImportedEntity(tag: DW_TAG_imported_declaration, scope: !105, entity: !415, file: !359, line: 148)
!415 = !DISubprogram(name: "getenv", scope: !298, file: !298, line: 634, type: !416, flags: DIFlagPrototyped, spFlags: 0)
!416 = !DISubroutineType(types: !417)
!417 = !{!418, !251}
!418 = !DIDerivedType(tag: DW_TAG_pointer_type, baseType: !253, size: 64)
!419 = !DIImportedEntity(tag: DW_TAG_imported_declaration, scope: !105, entity: !420, file: !359, line: 149)
!420 = !DISubprogram(name: "labs", scope: !298, file: !298, line: 841, type: !206, flags: DIFlagPrototyped, spFlags: 0)
!421 = !DIImportedEntity(tag: DW_TAG_imported_declaration, scope: !105, entity: !422, file: !359, line: 150)
!422 = !DISubprogram(name: "ldiv", scope: !298, file: !298, line: 854, type: !423, flags: DIFlagPrototyped, spFlags: 0)
!423 = !DISubroutineType(types: !424)
!424 = !{!361, !208, !208}
!425 = !DIImportedEntity(tag: DW_TAG_imported_declaration, scope: !105, entity: !426, file: !359, line: 151)
!426 = !DISubprogram(name: "malloc", scope: !298, file: !298, line: 539, type: !427, flags: DIFlagPrototyped, spFlags: 0)
!427 = !DISubroutineType(types: !428)
!428 = !{!101, !391}
!429 = !DIImportedEntity(tag: DW_TAG_imported_declaration, scope: !105, entity: !430, file: !359, line: 153)
!430 = !DISubprogram(name: "mblen", scope: !298, file: !298, line: 922, type: !431, flags: DIFlagPrototyped, spFlags: 0)
!431 = !DISubroutineType(types: !432)
!432 = !{!110, !251, !391}
!433 = !DIImportedEntity(tag: DW_TAG_imported_declaration, scope: !105, entity: !434, file: !359, line: 154)
!434 = !DISubprogram(name: "mbstowcs", scope: !298, file: !298, line: 933, type: !435, flags: DIFlagPrototyped, spFlags: 0)
!435 = !DISubroutineType(types: !436)
!436 = !{!391, !437, !440, !391}
!437 = !DIDerivedType(tag: DW_TAG_restrict_type, baseType: !438)
!438 = !DIDerivedType(tag: DW_TAG_pointer_type, baseType: !439, size: 64)
!439 = !DIBasicType(name: "wchar_t", size: 32, encoding: DW_ATE_signed)
!440 = !DIDerivedType(tag: DW_TAG_restrict_type, baseType: !251)
!441 = !DIImportedEntity(tag: DW_TAG_imported_declaration, scope: !105, entity: !442, file: !359, line: 155)
!442 = !DISubprogram(name: "mbtowc", scope: !298, file: !298, line: 925, type: !443, flags: DIFlagPrototyped, spFlags: 0)
!443 = !DISubroutineType(types: !444)
!444 = !{!110, !437, !440, !391}
!445 = !DIImportedEntity(tag: DW_TAG_imported_declaration, scope: !105, entity: !446, file: !359, line: 157)
!446 = !DISubprogram(name: "qsort", scope: !298, file: !298, line: 830, type: !447, flags: DIFlagPrototyped, spFlags: 0)
!447 = !DISubroutineType(types: !448)
!448 = !{null, !101, !391, !391, !394}
!449 = !DIImportedEntity(tag: DW_TAG_imported_declaration, scope: !105, entity: !450, file: !359, line: 163)
!450 = !DISubprogram(name: "rand", scope: !298, file: !298, line: 453, type: !451, flags: DIFlagPrototyped, spFlags: 0)
!451 = !DISubroutineType(types: !452)
!452 = !{!110}
!453 = !DIImportedEntity(tag: DW_TAG_imported_declaration, scope: !105, entity: !454, file: !359, line: 164)
!454 = !DISubprogram(name: "realloc", scope: !298, file: !298, line: 550, type: !455, flags: DIFlagPrototyped, spFlags: 0)
!455 = !DISubroutineType(types: !456)
!456 = !{!101, !101, !391}
!457 = !DIImportedEntity(tag: DW_TAG_imported_declaration, scope: !105, entity: !458, file: !359, line: 165)
!458 = !DISubprogram(name: "srand", scope: !298, file: !298, line: 455, type: !459, flags: DIFlagPrototyped, spFlags: 0)
!459 = !DISubroutineType(types: !460)
!460 = !{null, !9}
!461 = !DIImportedEntity(tag: DW_TAG_imported_declaration, scope: !105, entity: !462, file: !359, line: 166)
!462 = !DISubprogram(name: "strtod", scope: !298, file: !298, line: 117, type: !463, flags: DIFlagPrototyped, spFlags: 0)
!463 = !DISubroutineType(types: !464)
!464 = !{!100, !440, !465}
!465 = !DIDerivedType(tag: DW_TAG_restrict_type, baseType: !466)
!466 = !DIDerivedType(tag: DW_TAG_pointer_type, baseType: !418, size: 64)
!467 = !DIImportedEntity(tag: DW_TAG_imported_declaration, scope: !105, entity: !468, file: !359, line: 167)
!468 = !DISubprogram(name: "strtol", scope: !298, file: !298, line: 176, type: !469, flags: DIFlagPrototyped, spFlags: 0)
!469 = !DISubroutineType(types: !470)
!470 = !{!208, !440, !465, !110}
!471 = !DIImportedEntity(tag: DW_TAG_imported_declaration, scope: !105, entity: !472, file: !359, line: 168)
!472 = !DISubprogram(name: "strtoul", scope: !298, file: !298, line: 180, type: !473, flags: DIFlagPrototyped, spFlags: 0)
!473 = !DISubroutineType(types: !474)
!474 = !{!393, !440, !465, !110}
!475 = !DIImportedEntity(tag: DW_TAG_imported_declaration, scope: !105, entity: !476, file: !359, line: 169)
!476 = !DISubprogram(name: "system", scope: !298, file: !298, line: 784, type: !379, flags: DIFlagPrototyped, spFlags: 0)
!477 = !DIImportedEntity(tag: DW_TAG_imported_declaration, scope: !105, entity: !478, file: !359, line: 171)
!478 = !DISubprogram(name: "wcstombs", scope: !298, file: !298, line: 936, type: !479, flags: DIFlagPrototyped, spFlags: 0)
!479 = !DISubroutineType(types: !480)
!480 = !{!391, !481, !482, !391}
!481 = !DIDerivedType(tag: DW_TAG_restrict_type, baseType: !418)
!482 = !DIDerivedType(tag: DW_TAG_restrict_type, baseType: !483)
!483 = !DIDerivedType(tag: DW_TAG_pointer_type, baseType: !484, size: 64)
!484 = !DIDerivedType(tag: DW_TAG_const_type, baseType: !439)
!485 = !DIImportedEntity(tag: DW_TAG_imported_declaration, scope: !105, entity: !486, file: !359, line: 172)
!486 = !DISubprogram(name: "wctomb", scope: !298, file: !298, line: 929, type: !487, flags: DIFlagPrototyped, spFlags: 0)
!487 = !DISubroutineType(types: !488)
!488 = !{!110, !418, !439}
!489 = !DIImportedEntity(tag: DW_TAG_imported_declaration, scope: !490, entity: !491, file: !359, line: 200)
!490 = !DINamespace(name: "__gnu_cxx", scope: null)
!491 = !DIDerivedType(tag: DW_TAG_typedef, name: "lldiv_t", file: !298, line: 80, baseType: !492)
!492 = distinct !DICompositeType(tag: DW_TAG_structure_type, file: !298, line: 76, size: 128, flags: DIFlagTypePassByValue, elements: !493, identifier: "_ZTS7lldiv_t")
!493 = !{!494, !495}
!494 = !DIDerivedType(tag: DW_TAG_member, name: "quot", scope: !492, file: !298, line: 78, baseType: !219, size: 64)
!495 = !DIDerivedType(tag: DW_TAG_member, name: "rem", scope: !492, file: !298, line: 79, baseType: !219, size: 64, offset: 64)
!496 = !DIImportedEntity(tag: DW_TAG_imported_declaration, scope: !490, entity: !497, file: !359, line: 206)
!497 = !DISubprogram(name: "_Exit", scope: !298, file: !298, line: 629, type: !408, flags: DIFlagPrototyped | DIFlagNoReturn, spFlags: 0)
!498 = !DIImportedEntity(tag: DW_TAG_imported_declaration, scope: !490, entity: !499, file: !359, line: 210)
!499 = !DISubprogram(name: "llabs", scope: !298, file: !298, line: 844, type: !217, flags: DIFlagPrototyped, spFlags: 0)
!500 = !DIImportedEntity(tag: DW_TAG_imported_declaration, scope: !490, entity: !501, file: !359, line: 216)
!501 = !DISubprogram(name: "lldiv", scope: !298, file: !298, line: 858, type: !502, flags: DIFlagPrototyped, spFlags: 0)
!502 = !DISubroutineType(types: !503)
!503 = !{!491, !219, !219}
!504 = !DIImportedEntity(tag: DW_TAG_imported_declaration, scope: !490, entity: !505, file: !359, line: 227)
!505 = !DISubprogram(name: "atoll", scope: !298, file: !298, line: 112, type: !506, flags: DIFlagPrototyped, spFlags: 0)
!506 = !DISubroutineType(types: !507)
!507 = !{!219, !251}
!508 = !DIImportedEntity(tag: DW_TAG_imported_declaration, scope: !490, entity: !509, file: !359, line: 228)
!509 = !DISubprogram(name: "strtoll", scope: !298, file: !298, line: 200, type: !510, flags: DIFlagPrototyped, spFlags: 0)
!510 = !DISubroutineType(types: !511)
!511 = !{!219, !440, !465, !110}
!512 = !DIImportedEntity(tag: DW_TAG_imported_declaration, scope: !490, entity: !513, file: !359, line: 229)
!513 = !DISubprogram(name: "strtoull", scope: !298, file: !298, line: 205, type: !514, flags: DIFlagPrototyped, spFlags: 0)
!514 = !DISubroutineType(types: !515)
!515 = !{!516, !440, !465, !110}
!516 = !DIBasicType(name: "long long unsigned int", size: 64, encoding: DW_ATE_unsigned)
!517 = !DIImportedEntity(tag: DW_TAG_imported_declaration, scope: !490, entity: !518, file: !359, line: 231)
!518 = !DISubprogram(name: "strtof", scope: !298, file: !298, line: 123, type: !519, flags: DIFlagPrototyped, spFlags: 0)
!519 = !DISubroutineType(types: !520)
!520 = !{!115, !440, !465}
!521 = !DIImportedEntity(tag: DW_TAG_imported_declaration, scope: !490, entity: !522, file: !359, line: 232)
!522 = !DISubprogram(name: "strtold", scope: !298, file: !298, line: 126, type: !523, flags: DIFlagPrototyped, spFlags: 0)
!523 = !DISubroutineType(types: !524)
!524 = !{!525, !440, !465}
!525 = !DIBasicType(name: "long double", size: 128, encoding: DW_ATE_float)
!526 = !DIImportedEntity(tag: DW_TAG_imported_declaration, scope: !105, entity: !491, file: !359, line: 240)
!527 = !DIImportedEntity(tag: DW_TAG_imported_declaration, scope: !105, entity: !497, file: !359, line: 242)
!528 = !DIImportedEntity(tag: DW_TAG_imported_declaration, scope: !105, entity: !499, file: !359, line: 244)
!529 = !DIImportedEntity(tag: DW_TAG_imported_declaration, scope: !105, entity: !530, file: !359, line: 245)
!530 = !DISubprogram(name: "div", linkageName: "_ZN9__gnu_cxx3divExx", scope: !490, file: !359, line: 213, type: !502, flags: DIFlagPrototyped, spFlags: 0)
!531 = !DIImportedEntity(tag: DW_TAG_imported_declaration, scope: !105, entity: !501, file: !359, line: 246)
!532 = !DIImportedEntity(tag: DW_TAG_imported_declaration, scope: !105, entity: !505, file: !359, line: 248)
!533 = !DIImportedEntity(tag: DW_TAG_imported_declaration, scope: !105, entity: !518, file: !359, line: 249)
!534 = !DIImportedEntity(tag: DW_TAG_imported_declaration, scope: !105, entity: !509, file: !359, line: 250)
!535 = !DIImportedEntity(tag: DW_TAG_imported_declaration, scope: !105, entity: !513, file: !359, line: 251)
!536 = !DIImportedEntity(tag: DW_TAG_imported_declaration, scope: !105, entity: !522, file: !359, line: 252)
!537 = !DIImportedEntity(tag: DW_TAG_imported_declaration, scope: !4, entity: !367, file: !538, line: 38)
!538 = !DIFile(filename: "/usr/lib/gcc/x86_64-linux-gnu/9/../../../../include/c++/9/stdlib.h", directory: "")
!539 = !DIImportedEntity(tag: DW_TAG_imported_declaration, scope: !4, entity: !371, file: !538, line: 39)
!540 = !DIImportedEntity(tag: DW_TAG_imported_declaration, scope: !4, entity: !407, file: !538, line: 40)
!541 = !DIImportedEntity(tag: DW_TAG_imported_declaration, scope: !4, entity: !357, file: !538, line: 51)
!542 = !DIImportedEntity(tag: DW_TAG_imported_declaration, scope: !4, entity: !361, file: !538, line: 52)
!543 = !DIImportedEntity(tag: DW_TAG_imported_declaration, scope: !4, entity: !544, file: !538, line: 54)
!544 = !DISubprogram(name: "abs", linkageName: "_ZSt3abse", scope: !105, file: !299, line: 79, type: !545, flags: DIFlagPrototyped, spFlags: 0)
!545 = !DISubroutineType(types: !546)
!546 = !{!525, !525}
!547 = !DIImportedEntity(tag: DW_TAG_imported_declaration, scope: !4, entity: !376, file: !538, line: 55)
!548 = !DIImportedEntity(tag: DW_TAG_imported_declaration, scope: !4, entity: !378, file: !538, line: 56)
!549 = !DIImportedEntity(tag: DW_TAG_imported_declaration, scope: !4, entity: !382, file: !538, line: 57)
!550 = !DIImportedEntity(tag: DW_TAG_imported_declaration, scope: !4, entity: !386, file: !538, line: 58)
!551 = !DIImportedEntity(tag: DW_TAG_imported_declaration, scope: !4, entity: !399, file: !538, line: 59)
!552 = !DIImportedEntity(tag: DW_TAG_imported_declaration, scope: !4, entity: !530, file: !538, line: 60)
!553 = !DIImportedEntity(tag: DW_TAG_imported_declaration, scope: !4, entity: !411, file: !538, line: 61)
!554 = !DIImportedEntity(tag: DW_TAG_imported_declaration, scope: !4, entity: !415, file: !538, line: 62)
!555 = !DIImportedEntity(tag: DW_TAG_imported_declaration, scope: !4, entity: !420, file: !538, line: 63)
!556 = !DIImportedEntity(tag: DW_TAG_imported_declaration, scope: !4, entity: !422, file: !538, line: 64)
!557 = !DIImportedEntity(tag: DW_TAG_imported_declaration, scope: !4, entity: !426, file: !538, line: 65)
!558 = !DIImportedEntity(tag: DW_TAG_imported_declaration, scope: !4, entity: !430, file: !538, line: 67)
!559 = !DIImportedEntity(tag: DW_TAG_imported_declaration, scope: !4, entity: !434, file: !538, line: 68)
!560 = !DIImportedEntity(tag: DW_TAG_imported_declaration, scope: !4, entity: !442, file: !538, line: 69)
!561 = !DIImportedEntity(tag: DW_TAG_imported_declaration, scope: !4, entity: !446, file: !538, line: 71)
!562 = !DIImportedEntity(tag: DW_TAG_imported_declaration, scope: !4, entity: !450, file: !538, line: 72)
!563 = !DIImportedEntity(tag: DW_TAG_imported_declaration, scope: !4, entity: !454, file: !538, line: 73)
!564 = !DIImportedEntity(tag: DW_TAG_imported_declaration, scope: !4, entity: !458, file: !538, line: 74)
!565 = !DIImportedEntity(tag: DW_TAG_imported_declaration, scope: !4, entity: !462, file: !538, line: 75)
!566 = !DIImportedEntity(tag: DW_TAG_imported_declaration, scope: !4, entity: !468, file: !538, line: 76)
!567 = !DIImportedEntity(tag: DW_TAG_imported_declaration, scope: !4, entity: !472, file: !538, line: 77)
!568 = !DIImportedEntity(tag: DW_TAG_imported_declaration, scope: !4, entity: !476, file: !538, line: 78)
!569 = !DIImportedEntity(tag: DW_TAG_imported_declaration, scope: !4, entity: !478, file: !538, line: 80)
!570 = !DIImportedEntity(tag: DW_TAG_imported_declaration, scope: !4, entity: !486, file: !538, line: 81)
!571 = !DIImportedEntity(tag: DW_TAG_imported_declaration, scope: !105, entity: !572, file: !574, line: 414)
!572 = !DISubprogram(name: "acosf", linkageName: "_ZL5acosff", scope: !573, file: !573, line: 1126, type: !113, flags: DIFlagPrototyped, spFlags: DISPFlagLocalToUnit)
!573 = !DIFile(filename: "/usr/local/cuda/include/math_functions.hpp", directory: "")
!574 = !DIFile(filename: "xstack/llvm-install-debug/lib/clang/9.0.0/include/__clang_cuda_cmath.h", directory: "/u/NAS_SCRATCH/yc0769")
!575 = !DIImportedEntity(tag: DW_TAG_imported_declaration, scope: !105, entity: !576, file: !574, line: 415)
!576 = !DISubprogram(name: "acoshf", linkageName: "_ZL6acoshff", scope: !573, file: !573, line: 1154, type: !113, flags: DIFlagPrototyped, spFlags: DISPFlagLocalToUnit)
!577 = !DIImportedEntity(tag: DW_TAG_imported_declaration, scope: !105, entity: !578, file: !574, line: 416)
!578 = !DISubprogram(name: "asinf", linkageName: "_ZL5asinff", scope: !573, file: !573, line: 1121, type: !113, flags: DIFlagPrototyped, spFlags: DISPFlagLocalToUnit)
!579 = !DIImportedEntity(tag: DW_TAG_imported_declaration, scope: !105, entity: !580, file: !574, line: 417)
!580 = !DISubprogram(name: "asinhf", linkageName: "_ZL6asinhff", scope: !573, file: !573, line: 1159, type: !113, flags: DIFlagPrototyped, spFlags: DISPFlagLocalToUnit)
!581 = !DIImportedEntity(tag: DW_TAG_imported_declaration, scope: !105, entity: !582, file: !574, line: 418)
!582 = !DISubprogram(name: "atan2f", linkageName: "_ZL6atan2fff", scope: !573, file: !573, line: 1111, type: !126, flags: DIFlagPrototyped, spFlags: DISPFlagLocalToUnit)
!583 = !DIImportedEntity(tag: DW_TAG_imported_declaration, scope: !105, entity: !584, file: !574, line: 419)
!584 = !DISubprogram(name: "atanf", linkageName: "_ZL5atanff", scope: !573, file: !573, line: 1116, type: !113, flags: DIFlagPrototyped, spFlags: DISPFlagLocalToUnit)
!585 = !DIImportedEntity(tag: DW_TAG_imported_declaration, scope: !105, entity: !586, file: !574, line: 420)
!586 = !DISubprogram(name: "atanhf", linkageName: "_ZL6atanhff", scope: !573, file: !573, line: 1164, type: !113, flags: DIFlagPrototyped, spFlags: DISPFlagLocalToUnit)
!587 = !DIImportedEntity(tag: DW_TAG_imported_declaration, scope: !105, entity: !588, file: !574, line: 421)
!588 = !DISubprogram(name: "cbrtf", linkageName: "_ZL5cbrtff", scope: !573, file: !573, line: 1199, type: !113, flags: DIFlagPrototyped, spFlags: DISPFlagLocalToUnit)
!589 = !DIImportedEntity(tag: DW_TAG_imported_declaration, scope: !105, entity: !590, file: !574, line: 422)
!590 = !DISubprogram(name: "ceilf", linkageName: "_ZL5ceilff", scope: !591, file: !591, line: 647, type: !113, flags: DIFlagPrototyped, spFlags: DISPFlagLocalToUnit)
!591 = !DIFile(filename: "/usr/local/cuda/include/device_functions.hpp", directory: "")
!592 = !DIImportedEntity(tag: DW_TAG_imported_declaration, scope: !105, entity: !593, file: !574, line: 423)
!593 = !DISubprogram(name: "copysignf", linkageName: "_ZL9copysignfff", scope: !573, file: !573, line: 973, type: !126, flags: DIFlagPrototyped, spFlags: DISPFlagLocalToUnit)
!594 = !DIImportedEntity(tag: DW_TAG_imported_declaration, scope: !105, entity: !595, file: !574, line: 424)
!595 = !DISubprogram(name: "cosf", linkageName: "_ZL4cosff", scope: !573, file: !573, line: 1027, type: !113, flags: DIFlagPrototyped, spFlags: DISPFlagLocalToUnit)
!596 = !DIImportedEntity(tag: DW_TAG_imported_declaration, scope: !105, entity: !597, file: !574, line: 425)
!597 = !DISubprogram(name: "coshf", linkageName: "_ZL5coshff", scope: !573, file: !573, line: 1096, type: !113, flags: DIFlagPrototyped, spFlags: DISPFlagLocalToUnit)
!598 = !DIImportedEntity(tag: DW_TAG_imported_declaration, scope: !105, entity: !599, file: !574, line: 426)
!599 = !DISubprogram(name: "erfcf", linkageName: "_ZL5erfcff", scope: !573, file: !573, line: 1259, type: !113, flags: DIFlagPrototyped, spFlags: DISPFlagLocalToUnit)
!600 = !DIImportedEntity(tag: DW_TAG_imported_declaration, scope: !105, entity: !601, file: !574, line: 427)
!601 = !DISubprogram(name: "erff", linkageName: "_ZL4erfff", scope: !573, file: !573, line: 1249, type: !113, flags: DIFlagPrototyped, spFlags: DISPFlagLocalToUnit)
!602 = !DIImportedEntity(tag: DW_TAG_imported_declaration, scope: !105, entity: !603, file: !574, line: 428)
!603 = !DISubprogram(name: "exp2f", linkageName: "_ZL5exp2ff", scope: !591, file: !591, line: 637, type: !113, flags: DIFlagPrototyped, spFlags: DISPFlagLocalToUnit)
!604 = !DIImportedEntity(tag: DW_TAG_imported_declaration, scope: !105, entity: !605, file: !574, line: 429)
!605 = !DISubprogram(name: "expf", linkageName: "_ZL4expff", scope: !573, file: !573, line: 1078, type: !113, flags: DIFlagPrototyped, spFlags: DISPFlagLocalToUnit)
!606 = !DIImportedEntity(tag: DW_TAG_imported_declaration, scope: !105, entity: !607, file: !574, line: 430)
!607 = !DISubprogram(name: "expm1f", linkageName: "_ZL6expm1ff", scope: !573, file: !573, line: 1169, type: !113, flags: DIFlagPrototyped, spFlags: DISPFlagLocalToUnit)
!608 = !DIImportedEntity(tag: DW_TAG_imported_declaration, scope: !105, entity: !609, file: !574, line: 431)
!609 = !DISubprogram(name: "fabsf", linkageName: "_ZL5fabsff", scope: !591, file: !591, line: 582, type: !113, flags: DIFlagPrototyped, spFlags: DISPFlagLocalToUnit)
!610 = !DIImportedEntity(tag: DW_TAG_imported_declaration, scope: !105, entity: !611, file: !574, line: 432)
!611 = !DISubprogram(name: "fdimf", linkageName: "_ZL5fdimfff", scope: !573, file: !573, line: 1385, type: !126, flags: DIFlagPrototyped, spFlags: DISPFlagLocalToUnit)
!612 = !DIImportedEntity(tag: DW_TAG_imported_declaration, scope: !105, entity: !613, file: !574, line: 433)
!613 = !DISubprogram(name: "floorf", linkageName: "_ZL6floorff", scope: !591, file: !591, line: 572, type: !113, flags: DIFlagPrototyped, spFlags: DISPFlagLocalToUnit)
!614 = !DIImportedEntity(tag: DW_TAG_imported_declaration, scope: !105, entity: !615, file: !574, line: 434)
!615 = !DISubprogram(name: "fmaf", linkageName: "_ZL4fmaffff", scope: !573, file: !573, line: 1337, type: !158, flags: DIFlagPrototyped, spFlags: DISPFlagLocalToUnit)
!616 = !DIImportedEntity(tag: DW_TAG_imported_declaration, scope: !105, entity: !617, file: !574, line: 435)
!617 = !DISubprogram(name: "fmaxf", linkageName: "_ZL5fmaxfff", scope: !591, file: !591, line: 602, type: !126, flags: DIFlagPrototyped, spFlags: DISPFlagLocalToUnit)
!618 = !DIImportedEntity(tag: DW_TAG_imported_declaration, scope: !105, entity: !619, file: !574, line: 436)
!619 = !DISubprogram(name: "fminf", linkageName: "_ZL5fminfff", scope: !591, file: !591, line: 597, type: !126, flags: DIFlagPrototyped, spFlags: DISPFlagLocalToUnit)
!620 = !DIImportedEntity(tag: DW_TAG_imported_declaration, scope: !105, entity: !621, file: !574, line: 437)
!621 = !DISubprogram(name: "fmodf", linkageName: "_ZL5fmodfff", scope: !573, file: !573, line: 1322, type: !126, flags: DIFlagPrototyped, spFlags: DISPFlagLocalToUnit)
!622 = !DIImportedEntity(tag: DW_TAG_imported_declaration, scope: !105, entity: !623, file: !574, line: 438)
!623 = !DISubprogram(name: "frexpf", linkageName: "_ZL6frexpffPi", scope: !573, file: !573, line: 1312, type: !172, flags: DIFlagPrototyped, spFlags: DISPFlagLocalToUnit)
!624 = !DIImportedEntity(tag: DW_TAG_imported_declaration, scope: !105, entity: !625, file: !574, line: 439)
!625 = !DISubprogram(name: "hypotf", linkageName: "_ZL6hypotfff", scope: !573, file: !573, line: 1174, type: !126, flags: DIFlagPrototyped, spFlags: DISPFlagLocalToUnit)
!626 = !DIImportedEntity(tag: DW_TAG_imported_declaration, scope: !105, entity: !627, file: !574, line: 440)
!627 = !DISubprogram(name: "ilogbf", linkageName: "_ZL6ilogbff", scope: !573, file: !573, line: 1390, type: !168, flags: DIFlagPrototyped, spFlags: DISPFlagLocalToUnit)
!628 = !DIImportedEntity(tag: DW_TAG_imported_declaration, scope: !105, entity: !629, file: !574, line: 441)
!629 = !DISubprogram(name: "ldexpf", linkageName: "_ZL6ldexpffi", scope: !573, file: !573, line: 1289, type: !211, flags: DIFlagPrototyped, spFlags: DISPFlagLocalToUnit)
!630 = !DIImportedEntity(tag: DW_TAG_imported_declaration, scope: !105, entity: !631, file: !574, line: 442)
!631 = !DISubprogram(name: "lgammaf", linkageName: "_ZL7lgammaff", scope: !573, file: !573, line: 1284, type: !113, flags: DIFlagPrototyped, spFlags: DISPFlagLocalToUnit)
!632 = !DIImportedEntity(tag: DW_TAG_imported_declaration, scope: !105, entity: !633, file: !574, line: 443)
!633 = !DISubprogram(name: "llrintf", linkageName: "_ZL7llrintff", scope: !573, file: !573, line: 933, type: !222, flags: DIFlagPrototyped, spFlags: DISPFlagLocalToUnit)
!634 = !DIImportedEntity(tag: DW_TAG_imported_declaration, scope: !105, entity: !635, file: !574, line: 444)
!635 = !DISubprogram(name: "llroundf", linkageName: "_ZL8llroundff", scope: !573, file: !573, line: 1371, type: !222, flags: DIFlagPrototyped, spFlags: DISPFlagLocalToUnit)
!636 = !DIImportedEntity(tag: DW_TAG_imported_declaration, scope: !105, entity: !637, file: !574, line: 445)
!637 = !DISubprogram(name: "log10f", linkageName: "_ZL6log10ff", scope: !573, file: !573, line: 1140, type: !113, flags: DIFlagPrototyped, spFlags: DISPFlagLocalToUnit)
!638 = !DIImportedEntity(tag: DW_TAG_imported_declaration, scope: !105, entity: !639, file: !574, line: 446)
!639 = !DISubprogram(name: "log1pf", linkageName: "_ZL6log1pff", scope: !573, file: !573, line: 1149, type: !113, flags: DIFlagPrototyped, spFlags: DISPFlagLocalToUnit)
!640 = !DIImportedEntity(tag: DW_TAG_imported_declaration, scope: !105, entity: !641, file: !574, line: 447)
!641 = !DISubprogram(name: "log2f", linkageName: "_ZL5log2ff", scope: !573, file: !573, line: 1069, type: !113, flags: DIFlagPrototyped, spFlags: DISPFlagLocalToUnit)
!642 = !DIImportedEntity(tag: DW_TAG_imported_declaration, scope: !105, entity: !643, file: !574, line: 448)
!643 = !DISubprogram(name: "logbf", linkageName: "_ZL5logbff", scope: !573, file: !573, line: 1395, type: !113, flags: DIFlagPrototyped, spFlags: DISPFlagLocalToUnit)
!644 = !DIImportedEntity(tag: DW_TAG_imported_declaration, scope: !105, entity: !645, file: !574, line: 449)
!645 = !DISubprogram(name: "logf", linkageName: "_ZL4logff", scope: !573, file: !573, line: 1131, type: !113, flags: DIFlagPrototyped, spFlags: DISPFlagLocalToUnit)
!646 = !DIImportedEntity(tag: DW_TAG_imported_declaration, scope: !105, entity: !647, file: !574, line: 450)
!647 = !DISubprogram(name: "lrintf", linkageName: "_ZL6lrintff", scope: !573, file: !573, line: 924, type: !236, flags: DIFlagPrototyped, spFlags: DISPFlagLocalToUnit)
!648 = !DIImportedEntity(tag: DW_TAG_imported_declaration, scope: !105, entity: !649, file: !574, line: 451)
!649 = !DISubprogram(name: "lroundf", linkageName: "_ZL7lroundff", scope: !573, file: !573, line: 1376, type: !236, flags: DIFlagPrototyped, spFlags: DISPFlagLocalToUnit)
!650 = !DIImportedEntity(tag: DW_TAG_imported_declaration, scope: !105, entity: !651, file: !574, line: 452)
!651 = !DISubprogram(name: "modff", linkageName: "_ZL5modfffPf", scope: !573, file: !573, line: 1317, type: !244, flags: DIFlagPrototyped, spFlags: DISPFlagLocalToUnit)
!652 = !DIImportedEntity(tag: DW_TAG_imported_declaration, scope: !105, entity: !653, file: !574, line: 453)
!653 = !DISubprogram(name: "nearbyintf", linkageName: "_ZL10nearbyintff", scope: !573, file: !573, line: 938, type: !113, flags: DIFlagPrototyped, spFlags: DISPFlagLocalToUnit)
!654 = !DIImportedEntity(tag: DW_TAG_imported_declaration, scope: !105, entity: !655, file: !574, line: 454)
!655 = !DISubprogram(name: "nextafterf", linkageName: "_ZL10nextafterfff", scope: !573, file: !573, line: 1002, type: !126, flags: DIFlagPrototyped, spFlags: DISPFlagLocalToUnit)
!656 = !DIImportedEntity(tag: DW_TAG_imported_declaration, scope: !105, entity: !657, file: !574, line: 455)
!657 = !DISubprogram(name: "powf", linkageName: "_ZL4powfff", scope: !573, file: !573, line: 1352, type: !126, flags: DIFlagPrototyped, spFlags: DISPFlagLocalToUnit)
!658 = !DIImportedEntity(tag: DW_TAG_imported_declaration, scope: !105, entity: !659, file: !574, line: 456)
!659 = !DISubprogram(name: "remainderf", linkageName: "_ZL10remainderfff", scope: !573, file: !573, line: 1327, type: !126, flags: DIFlagPrototyped, spFlags: DISPFlagLocalToUnit)
!660 = !DIImportedEntity(tag: DW_TAG_imported_declaration, scope: !105, entity: !661, file: !574, line: 457)
!661 = !DISubprogram(name: "remquof", linkageName: "_ZL7remquofffPi", scope: !573, file: !573, line: 1332, type: !268, flags: DIFlagPrototyped, spFlags: DISPFlagLocalToUnit)
!662 = !DIImportedEntity(tag: DW_TAG_imported_declaration, scope: !105, entity: !663, file: !574, line: 458)
!663 = !DISubprogram(name: "rintf", linkageName: "_ZL5rintff", scope: !573, file: !573, line: 919, type: !113, flags: DIFlagPrototyped, spFlags: DISPFlagLocalToUnit)
!664 = !DIImportedEntity(tag: DW_TAG_imported_declaration, scope: !105, entity: !665, file: !574, line: 459)
!665 = !DISubprogram(name: "roundf", linkageName: "_ZL6roundff", scope: !573, file: !573, line: 1366, type: !113, flags: DIFlagPrototyped, spFlags: DISPFlagLocalToUnit)
!666 = !DIImportedEntity(tag: DW_TAG_imported_declaration, scope: !105, entity: !667, file: !574, line: 462)
!667 = !DISubprogram(name: "scalblnf", linkageName: "_ZL8scalblnffl", scope: !573, file: !573, line: 1299, type: !276, flags: DIFlagPrototyped, spFlags: DISPFlagLocalToUnit)
!668 = !DIImportedEntity(tag: DW_TAG_imported_declaration, scope: !105, entity: !669, file: !574, line: 464)
!669 = !DISubprogram(name: "scalbnf", linkageName: "_ZL7scalbnffi", scope: !573, file: !573, line: 1294, type: !211, flags: DIFlagPrototyped, spFlags: DISPFlagLocalToUnit)
!670 = !DIImportedEntity(tag: DW_TAG_imported_declaration, scope: !105, entity: !671, file: !574, line: 465)
!671 = !DISubprogram(name: "sinf", linkageName: "_ZL4sinff", scope: !573, file: !573, line: 1018, type: !113, flags: DIFlagPrototyped, spFlags: DISPFlagLocalToUnit)
!672 = !DIImportedEntity(tag: DW_TAG_imported_declaration, scope: !105, entity: !673, file: !574, line: 466)
!673 = !DISubprogram(name: "sinhf", linkageName: "_ZL5sinhff", scope: !573, file: !573, line: 1101, type: !113, flags: DIFlagPrototyped, spFlags: DISPFlagLocalToUnit)
!674 = !DIImportedEntity(tag: DW_TAG_imported_declaration, scope: !105, entity: !675, file: !574, line: 467)
!675 = !DISubprogram(name: "sqrtf", linkageName: "_ZL5sqrtff", scope: !591, file: !591, line: 887, type: !113, flags: DIFlagPrototyped, spFlags: DISPFlagLocalToUnit)
!676 = !DIImportedEntity(tag: DW_TAG_imported_declaration, scope: !105, entity: !677, file: !574, line: 468)
!677 = !DISubprogram(name: "tanf", linkageName: "_ZL4tanff", scope: !573, file: !573, line: 1060, type: !113, flags: DIFlagPrototyped, spFlags: DISPFlagLocalToUnit)
!678 = !DIImportedEntity(tag: DW_TAG_imported_declaration, scope: !105, entity: !679, file: !574, line: 469)
!679 = !DISubprogram(name: "tanhf", linkageName: "_ZL5tanhff", scope: !573, file: !573, line: 1106, type: !113, flags: DIFlagPrototyped, spFlags: DISPFlagLocalToUnit)
!680 = !DIImportedEntity(tag: DW_TAG_imported_declaration, scope: !105, entity: !681, file: !574, line: 470)
!681 = !DISubprogram(name: "tgammaf", linkageName: "_ZL7tgammaff", scope: !573, file: !573, line: 1361, type: !113, flags: DIFlagPrototyped, spFlags: DISPFlagLocalToUnit)
!682 = !DIImportedEntity(tag: DW_TAG_imported_declaration, scope: !105, entity: !683, file: !574, line: 471)
!683 = !DISubprogram(name: "truncf", linkageName: "_ZL6truncff", scope: !591, file: !591, line: 642, type: !113, flags: DIFlagPrototyped, spFlags: DISPFlagLocalToUnit)
!684 = !DIImportedEntity(tag: DW_TAG_imported_declaration, scope: !4, entity: !544, file: !685, line: 38)
!685 = !DIFile(filename: "/usr/lib/gcc/x86_64-linux-gnu/9/../../../../include/c++/9/math.h", directory: "")
!686 = !DIImportedEntity(tag: DW_TAG_imported_declaration, scope: !4, entity: !687, file: !685, line: 54)
!687 = !DISubprogram(name: "modf", linkageName: "_ZSt4modfePe", scope: !105, file: !305, line: 380, type: !688, flags: DIFlagPrototyped, spFlags: 0)
!688 = !DISubroutineType(types: !689)
!689 = !{!525, !525, !690}
!690 = !DIDerivedType(tag: DW_TAG_pointer_type, baseType: !525, size: 64)
!691 = !{!"clang version 9.0.0 (git@github.com:SusanTan/llvm-project.git a1efa594106d738d0b74c9e4e2b9b779eb8b7d25)"}
!692 = distinct !DISubprogram(name: "kernel_A_mul_B", linkageName: "_Z14kernel_A_mul_BiiiPdS_S_", scope: !5, file: !5, line: 15, type: !693, scopeLine: 18, flags: DIFlagPrototyped, spFlags: DISPFlagDefinition, unit: !4, retainedNodes: !695)
!693 = !DISubroutineType(types: !694)
!694 = !{null, !110, !110, !110, !99, !99, !99}
!695 = !{}
!696 = !DILocalVariable(name: "ni", arg: 1, scope: !692, file: !5, line: 15, type: !110)
!697 = !DILocation(line: 15, column: 36, scope: !692)
!698 = !DILocalVariable(name: "nj", arg: 2, scope: !692, file: !5, line: 15, type: !110)
!699 = !DILocation(line: 15, column: 44, scope: !692)
!700 = !DILocalVariable(name: "nk", arg: 3, scope: !692, file: !5, line: 15, type: !110)
!701 = !DILocation(line: 15, column: 52, scope: !692)
!702 = !DILocalVariable(name: "C", arg: 4, scope: !692, file: !5, line: 16, type: !99)
!703 = !DILocation(line: 16, column: 40, scope: !692)
!704 = !DILocalVariable(name: "A", arg: 5, scope: !692, file: !5, line: 17, type: !99)
!705 = !DILocation(line: 17, column: 40, scope: !692)
!706 = !DILocalVariable(name: "B", arg: 6, scope: !692, file: !5, line: 18, type: !99)
!707 = !DILocation(line: 18, column: 40, scope: !692)
!708 = !DILocation(line: 18, column: 43, scope: !692)
!709 = !DILocation(line: 27, column: 1, scope: !692)
!710 = distinct !DISubprogram(name: "main", scope: !5, file: !5, line: 115, type: !711, scopeLine: 116, flags: DIFlagPrototyped, spFlags: DISPFlagDefinition, unit: !4, retainedNodes: !695)
!711 = !DISubroutineType(types: !712)
!712 = !{!110, !110, !466}
!713 = !DILocalVariable(name: "argc", arg: 1, scope: !710, file: !5, line: 115, type: !110)
!714 = !DILocation(line: 115, column: 14, scope: !710)
!715 = !DILocalVariable(name: "argv", arg: 2, scope: !710, file: !5, line: 115, type: !466)
!716 = !DILocation(line: 115, column: 27, scope: !710)
!717 = !DILocalVariable(name: "dump_code", scope: !710, file: !5, line: 118, type: !110)
!718 = !DILocation(line: 118, column: 7, scope: !710)
!719 = !DILocation(line: 118, column: 24, scope: !710)
!720 = !DILocation(line: 118, column: 19, scope: !710)
!721 = !DILocalVariable(name: "ni", scope: !710, file: !5, line: 119, type: !110)
!722 = !DILocation(line: 119, column: 7, scope: !710)
!723 = !DILocation(line: 119, column: 17, scope: !710)
!724 = !DILocation(line: 119, column: 12, scope: !710)
!725 = !DILocalVariable(name: "nj", scope: !710, file: !5, line: 120, type: !110)
!726 = !DILocation(line: 120, column: 7, scope: !710)
!727 = !DILocation(line: 120, column: 17, scope: !710)
!728 = !DILocation(line: 120, column: 12, scope: !710)
!729 = !DILocalVariable(name: "nk", scope: !710, file: !5, line: 121, type: !110)
!730 = !DILocation(line: 121, column: 7, scope: !710)
!731 = !DILocation(line: 121, column: 17, scope: !710)
!732 = !DILocation(line: 121, column: 12, scope: !710)
!733 = !DILocalVariable(name: "nl", scope: !710, file: !5, line: 122, type: !110)
!734 = !DILocation(line: 122, column: 7, scope: !710)
!735 = !DILocation(line: 122, column: 17, scope: !710)
!736 = !DILocation(line: 122, column: 12, scope: !710)
!737 = !DILocalVariable(name: "nm", scope: !710, file: !5, line: 123, type: !110)
!738 = !DILocation(line: 123, column: 7, scope: !710)
!739 = !DILocation(line: 123, column: 17, scope: !710)
!740 = !DILocation(line: 123, column: 12, scope: !710)
!741 = !DILocalVariable(name: "A", scope: !710, file: !5, line: 126, type: !99)
!742 = !DILocation(line: 126, column: 11, scope: !710)
!743 = !DILocation(line: 126, column: 31, scope: !710)
!744 = !DILocation(line: 126, column: 34, scope: !710)
!745 = !DILocation(line: 126, column: 33, scope: !710)
!746 = !DILocation(line: 126, column: 36, scope: !710)
!747 = !DILocation(line: 126, column: 24, scope: !710)
!748 = !DILocation(line: 126, column: 15, scope: !710)
!749 = !DILocalVariable(name: "B", scope: !710, file: !5, line: 127, type: !99)
!750 = !DILocation(line: 127, column: 11, scope: !710)
!751 = !DILocation(line: 127, column: 31, scope: !710)
!752 = !DILocation(line: 127, column: 34, scope: !710)
!753 = !DILocation(line: 127, column: 33, scope: !710)
!754 = !DILocation(line: 127, column: 36, scope: !710)
!755 = !DILocation(line: 127, column: 24, scope: !710)
!756 = !DILocation(line: 127, column: 15, scope: !710)
!757 = !DILocalVariable(name: "C", scope: !710, file: !5, line: 128, type: !99)
!758 = !DILocation(line: 128, column: 11, scope: !710)
!759 = !DILocation(line: 128, column: 31, scope: !710)
!760 = !DILocation(line: 128, column: 34, scope: !710)
!761 = !DILocation(line: 128, column: 33, scope: !710)
!762 = !DILocation(line: 128, column: 36, scope: !710)
!763 = !DILocation(line: 128, column: 24, scope: !710)
!764 = !DILocation(line: 128, column: 15, scope: !710)
!765 = !DILocalVariable(name: "D", scope: !710, file: !5, line: 129, type: !99)
!766 = !DILocation(line: 129, column: 11, scope: !710)
!767 = !DILocation(line: 129, column: 31, scope: !710)
!768 = !DILocation(line: 129, column: 34, scope: !710)
!769 = !DILocation(line: 129, column: 33, scope: !710)
!770 = !DILocation(line: 129, column: 36, scope: !710)
!771 = !DILocation(line: 129, column: 24, scope: !710)
!772 = !DILocation(line: 129, column: 15, scope: !710)
!773 = !DILocalVariable(name: "E", scope: !710, file: !5, line: 130, type: !99)
!774 = !DILocation(line: 130, column: 11, scope: !710)
!775 = !DILocation(line: 130, column: 31, scope: !710)
!776 = !DILocation(line: 130, column: 34, scope: !710)
!777 = !DILocation(line: 130, column: 33, scope: !710)
!778 = !DILocation(line: 130, column: 36, scope: !710)
!779 = !DILocation(line: 130, column: 24, scope: !710)
!780 = !DILocation(line: 130, column: 15, scope: !710)
!781 = !DILocalVariable(name: "F", scope: !710, file: !5, line: 131, type: !99)
!782 = !DILocation(line: 131, column: 11, scope: !710)
!783 = !DILocation(line: 131, column: 31, scope: !710)
!784 = !DILocation(line: 131, column: 34, scope: !710)
!785 = !DILocation(line: 131, column: 33, scope: !710)
!786 = !DILocation(line: 131, column: 36, scope: !710)
!787 = !DILocation(line: 131, column: 24, scope: !710)
!788 = !DILocation(line: 131, column: 15, scope: !710)
!789 = !DILocalVariable(name: "G", scope: !710, file: !5, line: 132, type: !99)
!790 = !DILocation(line: 132, column: 11, scope: !710)
!791 = !DILocation(line: 132, column: 31, scope: !710)
!792 = !DILocation(line: 132, column: 34, scope: !710)
!793 = !DILocation(line: 132, column: 33, scope: !710)
!794 = !DILocation(line: 132, column: 36, scope: !710)
!795 = !DILocation(line: 132, column: 24, scope: !710)
!796 = !DILocation(line: 132, column: 15, scope: !710)
!797 = !DILocation(line: 134, column: 15, scope: !710)
!798 = !DILocation(line: 134, column: 19, scope: !710)
!799 = !DILocation(line: 134, column: 23, scope: !710)
!800 = !DILocation(line: 134, column: 27, scope: !710)
!801 = !DILocation(line: 134, column: 31, scope: !710)
!802 = !DILocation(line: 135, column: 7, scope: !710)
!803 = !DILocation(line: 136, column: 7, scope: !710)
!804 = !DILocation(line: 137, column: 7, scope: !710)
!805 = !DILocation(line: 138, column: 7, scope: !710)
!806 = !DILocation(line: 139, column: 7, scope: !710)
!807 = !DILocation(line: 140, column: 7, scope: !710)
!808 = !DILocation(line: 141, column: 7, scope: !710)
!809 = !DILocation(line: 134, column: 3, scope: !710)
!810 = !DILocalVariable(name: "dev_A", scope: !710, file: !5, line: 146, type: !99)
!811 = !DILocation(line: 146, column: 11, scope: !710)
!812 = !DILocalVariable(name: "dev_B", scope: !710, file: !5, line: 147, type: !99)
!813 = !DILocation(line: 147, column: 11, scope: !710)
!814 = !DILocalVariable(name: "dev_C", scope: !710, file: !5, line: 148, type: !99)
!815 = !DILocation(line: 148, column: 11, scope: !710)
!816 = !DILocalVariable(name: "dev_D", scope: !710, file: !5, line: 149, type: !99)
!817 = !DILocation(line: 149, column: 11, scope: !710)
!818 = !DILocalVariable(name: "dev_E", scope: !710, file: !5, line: 150, type: !99)
!819 = !DILocation(line: 150, column: 11, scope: !710)
!820 = !DILocalVariable(name: "dev_F", scope: !710, file: !5, line: 151, type: !99)
!821 = !DILocation(line: 151, column: 11, scope: !710)
!822 = !DILocalVariable(name: "dev_G", scope: !710, file: !5, line: 152, type: !99)
!823 = !DILocation(line: 152, column: 11, scope: !710)
!824 = !DILocation(line: 153, column: 22, scope: !710)
!825 = !DILocation(line: 153, column: 25, scope: !710)
!826 = !DILocation(line: 153, column: 24, scope: !710)
!827 = !DILocation(line: 153, column: 27, scope: !710)
!828 = !DILocation(line: 153, column: 3, scope: !710)
!829 = !DILocation(line: 154, column: 22, scope: !710)
!830 = !DILocation(line: 154, column: 25, scope: !710)
!831 = !DILocation(line: 154, column: 24, scope: !710)
!832 = !DILocation(line: 154, column: 27, scope: !710)
!833 = !DILocation(line: 154, column: 3, scope: !710)
!834 = !DILocation(line: 155, column: 22, scope: !710)
!835 = !DILocation(line: 155, column: 25, scope: !710)
!836 = !DILocation(line: 155, column: 24, scope: !710)
!837 = !DILocation(line: 155, column: 27, scope: !710)
!838 = !DILocation(line: 155, column: 3, scope: !710)
!839 = !DILocation(line: 156, column: 22, scope: !710)
!840 = !DILocation(line: 156, column: 25, scope: !710)
!841 = !DILocation(line: 156, column: 24, scope: !710)
!842 = !DILocation(line: 156, column: 27, scope: !710)
!843 = !DILocation(line: 156, column: 3, scope: !710)
!844 = !DILocation(line: 157, column: 22, scope: !710)
!845 = !DILocation(line: 157, column: 25, scope: !710)
!846 = !DILocation(line: 157, column: 24, scope: !710)
!847 = !DILocation(line: 157, column: 27, scope: !710)
!848 = !DILocation(line: 157, column: 3, scope: !710)
!849 = !DILocation(line: 158, column: 22, scope: !710)
!850 = !DILocation(line: 158, column: 25, scope: !710)
!851 = !DILocation(line: 158, column: 24, scope: !710)
!852 = !DILocation(line: 158, column: 27, scope: !710)
!853 = !DILocation(line: 158, column: 3, scope: !710)
!854 = !DILocation(line: 159, column: 22, scope: !710)
!855 = !DILocation(line: 159, column: 25, scope: !710)
!856 = !DILocation(line: 159, column: 24, scope: !710)
!857 = !DILocation(line: 159, column: 27, scope: !710)
!858 = !DILocation(line: 159, column: 3, scope: !710)
!859 = !DILocation(line: 160, column: 14, scope: !710)
!860 = !DILocation(line: 160, column: 21, scope: !710)
!861 = !DILocation(line: 160, column: 24, scope: !710)
!862 = !DILocation(line: 160, column: 27, scope: !710)
!863 = !DILocation(line: 160, column: 26, scope: !710)
!864 = !DILocation(line: 160, column: 29, scope: !710)
!865 = !DILocation(line: 160, column: 3, scope: !710)
!866 = !DILocation(line: 161, column: 14, scope: !710)
!867 = !DILocation(line: 161, column: 21, scope: !710)
!868 = !DILocation(line: 161, column: 24, scope: !710)
!869 = !DILocation(line: 161, column: 27, scope: !710)
!870 = !DILocation(line: 161, column: 26, scope: !710)
!871 = !DILocation(line: 161, column: 29, scope: !710)
!872 = !DILocation(line: 161, column: 3, scope: !710)
!873 = !DILocation(line: 162, column: 14, scope: !710)
!874 = !DILocation(line: 162, column: 21, scope: !710)
!875 = !DILocation(line: 162, column: 24, scope: !710)
!876 = !DILocation(line: 162, column: 27, scope: !710)
!877 = !DILocation(line: 162, column: 26, scope: !710)
!878 = !DILocation(line: 162, column: 29, scope: !710)
!879 = !DILocation(line: 162, column: 3, scope: !710)
!880 = !DILocation(line: 163, column: 14, scope: !710)
!881 = !DILocation(line: 163, column: 21, scope: !710)
!882 = !DILocation(line: 163, column: 24, scope: !710)
!883 = !DILocation(line: 163, column: 27, scope: !710)
!884 = !DILocation(line: 163, column: 26, scope: !710)
!885 = !DILocation(line: 163, column: 29, scope: !710)
!886 = !DILocation(line: 163, column: 3, scope: !710)
!887 = !DILocation(line: 164, column: 14, scope: !710)
!888 = !DILocation(line: 164, column: 21, scope: !710)
!889 = !DILocation(line: 164, column: 24, scope: !710)
!890 = !DILocation(line: 164, column: 27, scope: !710)
!891 = !DILocation(line: 164, column: 26, scope: !710)
!892 = !DILocation(line: 164, column: 29, scope: !710)
!893 = !DILocation(line: 164, column: 3, scope: !710)
!894 = !DILocation(line: 165, column: 14, scope: !710)
!895 = !DILocation(line: 165, column: 21, scope: !710)
!896 = !DILocation(line: 165, column: 24, scope: !710)
!897 = !DILocation(line: 165, column: 27, scope: !710)
!898 = !DILocation(line: 165, column: 26, scope: !710)
!899 = !DILocation(line: 165, column: 29, scope: !710)
!900 = !DILocation(line: 165, column: 3, scope: !710)
!901 = !DILocation(line: 166, column: 14, scope: !710)
!902 = !DILocation(line: 166, column: 21, scope: !710)
!903 = !DILocation(line: 166, column: 24, scope: !710)
!904 = !DILocation(line: 166, column: 27, scope: !710)
!905 = !DILocation(line: 166, column: 26, scope: !710)
!906 = !DILocation(line: 166, column: 29, scope: !710)
!907 = !DILocation(line: 166, column: 3, scope: !710)
!908 = !DILocation(line: 169, column: 10, scope: !710)
!909 = !DILocation(line: 169, column: 14, scope: !710)
!910 = !DILocation(line: 169, column: 18, scope: !710)
!911 = !DILocation(line: 169, column: 22, scope: !710)
!912 = !DILocation(line: 169, column: 26, scope: !710)
!913 = !DILocation(line: 169, column: 30, scope: !710)
!914 = !DILocation(line: 169, column: 37, scope: !710)
!915 = !DILocation(line: 169, column: 44, scope: !710)
!916 = !DILocation(line: 169, column: 51, scope: !710)
!917 = !DILocation(line: 169, column: 58, scope: !710)
!918 = !DILocation(line: 169, column: 65, scope: !710)
!919 = !DILocation(line: 169, column: 72, scope: !710)
!920 = !DILocation(line: 169, column: 3, scope: !710)
!921 = !DILocation(line: 172, column: 14, scope: !710)
!922 = !DILocation(line: 172, column: 17, scope: !710)
!923 = !DILocation(line: 172, column: 24, scope: !710)
!924 = !DILocation(line: 172, column: 29, scope: !710)
!925 = !DILocation(line: 172, column: 27, scope: !710)
!926 = !DILocation(line: 172, column: 32, scope: !710)
!927 = !DILocation(line: 172, column: 3, scope: !710)
!928 = !DILocation(line: 174, column: 7, scope: !929)
!929 = distinct !DILexicalBlock(scope: !710, file: !5, line: 174, column: 7)
!930 = !DILocation(line: 174, column: 17, scope: !929)
!931 = !DILocation(line: 174, column: 7, scope: !710)
!932 = !DILocation(line: 174, column: 35, scope: !929)
!933 = !DILocation(line: 174, column: 39, scope: !929)
!934 = !DILocation(line: 174, column: 43, scope: !929)
!935 = !DILocation(line: 174, column: 23, scope: !929)
!936 = !DILocation(line: 177, column: 15, scope: !710)
!937 = !DILocation(line: 177, column: 3, scope: !710)
!938 = !DILocation(line: 178, column: 15, scope: !710)
!939 = !DILocation(line: 178, column: 3, scope: !710)
!940 = !DILocation(line: 179, column: 15, scope: !710)
!941 = !DILocation(line: 179, column: 3, scope: !710)
!942 = !DILocation(line: 180, column: 15, scope: !710)
!943 = !DILocation(line: 180, column: 3, scope: !710)
!944 = !DILocation(line: 181, column: 15, scope: !710)
!945 = !DILocation(line: 181, column: 3, scope: !710)
!946 = !DILocation(line: 182, column: 15, scope: !710)
!947 = !DILocation(line: 182, column: 3, scope: !710)
!948 = !DILocation(line: 183, column: 15, scope: !710)
!949 = !DILocation(line: 183, column: 3, scope: !710)
!950 = !DILocation(line: 185, column: 3, scope: !710)
!951 = distinct !DISubprogram(name: "init_array", linkageName: "_ZL10init_arrayiiiiiPdS_S_S_S_S_S_", scope: !5, file: !5, line: 36, type: !952, scopeLine: 44, flags: DIFlagPrototyped, spFlags: DISPFlagLocalToUnit | DISPFlagDefinition, unit: !4, retainedNodes: !695)
!952 = !DISubroutineType(types: !953)
!953 = !{null, !110, !110, !110, !110, !110, !99, !99, !99, !99, !99, !99, !99}
!954 = !DILocalVariable(name: "ni", arg: 1, scope: !951, file: !5, line: 36, type: !110)
!955 = !DILocation(line: 36, column: 21, scope: !951)
!956 = !DILocalVariable(name: "nj", arg: 2, scope: !951, file: !5, line: 36, type: !110)
!957 = !DILocation(line: 36, column: 29, scope: !951)
!958 = !DILocalVariable(name: "nk", arg: 3, scope: !951, file: !5, line: 36, type: !110)
!959 = !DILocation(line: 36, column: 37, scope: !951)
!960 = !DILocalVariable(name: "nl", arg: 4, scope: !951, file: !5, line: 36, type: !110)
!961 = !DILocation(line: 36, column: 45, scope: !951)
!962 = !DILocalVariable(name: "nm", arg: 5, scope: !951, file: !5, line: 36, type: !110)
!963 = !DILocation(line: 36, column: 53, scope: !951)
!964 = !DILocalVariable(name: "A", arg: 6, scope: !951, file: !5, line: 37, type: !99)
!965 = !DILocation(line: 37, column: 13, scope: !951)
!966 = !DILocalVariable(name: "B", arg: 7, scope: !951, file: !5, line: 38, type: !99)
!967 = !DILocation(line: 38, column: 13, scope: !951)
!968 = !DILocalVariable(name: "C", arg: 8, scope: !951, file: !5, line: 39, type: !99)
!969 = !DILocation(line: 39, column: 13, scope: !951)
!970 = !DILocalVariable(name: "D", arg: 9, scope: !951, file: !5, line: 40, type: !99)
!971 = !DILocation(line: 40, column: 13, scope: !951)
!972 = !DILocalVariable(name: "E", arg: 10, scope: !951, file: !5, line: 41, type: !99)
!973 = !DILocation(line: 41, column: 13, scope: !951)
!974 = !DILocalVariable(name: "F", arg: 11, scope: !951, file: !5, line: 42, type: !99)
!975 = !DILocation(line: 42, column: 13, scope: !951)
!976 = !DILocalVariable(name: "G", arg: 12, scope: !951, file: !5, line: 43, type: !99)
!977 = !DILocation(line: 43, column: 13, scope: !951)
!978 = !DILocalVariable(name: "i", scope: !951, file: !5, line: 45, type: !110)
!979 = !DILocation(line: 45, column: 7, scope: !951)
!980 = !DILocalVariable(name: "j", scope: !951, file: !5, line: 45, type: !110)
!981 = !DILocation(line: 45, column: 10, scope: !951)
!982 = !DILocation(line: 47, column: 10, scope: !983)
!983 = distinct !DILexicalBlock(scope: !951, file: !5, line: 47, column: 3)
!984 = !DILocation(line: 47, column: 8, scope: !983)
!985 = !DILocation(line: 47, column: 15, scope: !986)
!986 = distinct !DILexicalBlock(scope: !983, file: !5, line: 47, column: 3)
!987 = !DILocation(line: 47, column: 19, scope: !986)
!988 = !DILocation(line: 47, column: 17, scope: !986)
!989 = !DILocation(line: 47, column: 3, scope: !983)
!990 = !DILocation(line: 48, column: 12, scope: !991)
!991 = distinct !DILexicalBlock(scope: !986, file: !5, line: 48, column: 5)
!992 = !DILocation(line: 48, column: 10, scope: !991)
!993 = !DILocation(line: 48, column: 17, scope: !994)
!994 = distinct !DILexicalBlock(scope: !991, file: !5, line: 48, column: 5)
!995 = !DILocation(line: 48, column: 21, scope: !994)
!996 = !DILocation(line: 48, column: 19, scope: !994)
!997 = !DILocation(line: 48, column: 5, scope: !991)
!998 = !DILocation(line: 49, column: 29, scope: !994)
!999 = !DILocation(line: 49, column: 31, scope: !994)
!1000 = !DILocation(line: 49, column: 30, scope: !994)
!1001 = !DILocation(line: 49, column: 36, scope: !994)
!1002 = !DILocation(line: 49, column: 34, scope: !994)
!1003 = !DILocation(line: 49, column: 7, scope: !994)
!1004 = !DILocation(line: 49, column: 9, scope: !994)
!1005 = !DILocation(line: 49, column: 11, scope: !994)
!1006 = !DILocation(line: 49, column: 10, scope: !994)
!1007 = !DILocation(line: 49, column: 14, scope: !994)
!1008 = !DILocation(line: 49, column: 13, scope: !994)
!1009 = !DILocation(line: 49, column: 17, scope: !994)
!1010 = !DILocation(line: 48, column: 26, scope: !994)
!1011 = !DILocation(line: 48, column: 5, scope: !994)
!1012 = distinct !{!1012, !997, !1013}
!1013 = !DILocation(line: 49, column: 36, scope: !991)
!1014 = !DILocation(line: 47, column: 24, scope: !986)
!1015 = !DILocation(line: 47, column: 3, scope: !986)
!1016 = distinct !{!1016, !989, !1017}
!1017 = !DILocation(line: 49, column: 36, scope: !983)
!1018 = !DILocation(line: 50, column: 10, scope: !1019)
!1019 = distinct !DILexicalBlock(scope: !951, file: !5, line: 50, column: 3)
!1020 = !DILocation(line: 50, column: 8, scope: !1019)
!1021 = !DILocation(line: 50, column: 15, scope: !1022)
!1022 = distinct !DILexicalBlock(scope: !1019, file: !5, line: 50, column: 3)
!1023 = !DILocation(line: 50, column: 19, scope: !1022)
!1024 = !DILocation(line: 50, column: 17, scope: !1022)
!1025 = !DILocation(line: 50, column: 3, scope: !1019)
!1026 = !DILocation(line: 51, column: 12, scope: !1027)
!1027 = distinct !DILexicalBlock(scope: !1022, file: !5, line: 51, column: 5)
!1028 = !DILocation(line: 51, column: 10, scope: !1027)
!1029 = !DILocation(line: 51, column: 17, scope: !1030)
!1030 = distinct !DILexicalBlock(scope: !1027, file: !5, line: 51, column: 5)
!1031 = !DILocation(line: 51, column: 21, scope: !1030)
!1032 = !DILocation(line: 51, column: 19, scope: !1030)
!1033 = !DILocation(line: 51, column: 5, scope: !1027)
!1034 = !DILocation(line: 52, column: 29, scope: !1030)
!1035 = !DILocation(line: 52, column: 32, scope: !1030)
!1036 = !DILocation(line: 52, column: 33, scope: !1030)
!1037 = !DILocation(line: 52, column: 31, scope: !1030)
!1038 = !DILocation(line: 52, column: 30, scope: !1030)
!1039 = !DILocation(line: 52, column: 40, scope: !1030)
!1040 = !DILocation(line: 52, column: 38, scope: !1030)
!1041 = !DILocation(line: 52, column: 7, scope: !1030)
!1042 = !DILocation(line: 52, column: 9, scope: !1030)
!1043 = !DILocation(line: 52, column: 11, scope: !1030)
!1044 = !DILocation(line: 52, column: 10, scope: !1030)
!1045 = !DILocation(line: 52, column: 14, scope: !1030)
!1046 = !DILocation(line: 52, column: 13, scope: !1030)
!1047 = !DILocation(line: 52, column: 17, scope: !1030)
!1048 = !DILocation(line: 51, column: 26, scope: !1030)
!1049 = !DILocation(line: 51, column: 5, scope: !1030)
!1050 = distinct !{!1050, !1033, !1051}
!1051 = !DILocation(line: 52, column: 40, scope: !1027)
!1052 = !DILocation(line: 50, column: 24, scope: !1022)
!1053 = !DILocation(line: 50, column: 3, scope: !1022)
!1054 = distinct !{!1054, !1025, !1055}
!1055 = !DILocation(line: 52, column: 40, scope: !1019)
!1056 = !DILocation(line: 53, column: 10, scope: !1057)
!1057 = distinct !DILexicalBlock(scope: !951, file: !5, line: 53, column: 3)
!1058 = !DILocation(line: 53, column: 8, scope: !1057)
!1059 = !DILocation(line: 53, column: 15, scope: !1060)
!1060 = distinct !DILexicalBlock(scope: !1057, file: !5, line: 53, column: 3)
!1061 = !DILocation(line: 53, column: 19, scope: !1060)
!1062 = !DILocation(line: 53, column: 17, scope: !1060)
!1063 = !DILocation(line: 53, column: 3, scope: !1057)
!1064 = !DILocation(line: 54, column: 12, scope: !1065)
!1065 = distinct !DILexicalBlock(scope: !1060, file: !5, line: 54, column: 5)
!1066 = !DILocation(line: 54, column: 10, scope: !1065)
!1067 = !DILocation(line: 54, column: 17, scope: !1068)
!1068 = distinct !DILexicalBlock(scope: !1065, file: !5, line: 54, column: 5)
!1069 = !DILocation(line: 54, column: 21, scope: !1068)
!1070 = !DILocation(line: 54, column: 19, scope: !1068)
!1071 = !DILocation(line: 54, column: 5, scope: !1065)
!1072 = !DILocation(line: 55, column: 29, scope: !1068)
!1073 = !DILocation(line: 55, column: 32, scope: !1068)
!1074 = !DILocation(line: 55, column: 33, scope: !1068)
!1075 = !DILocation(line: 55, column: 31, scope: !1068)
!1076 = !DILocation(line: 55, column: 30, scope: !1068)
!1077 = !DILocation(line: 55, column: 40, scope: !1068)
!1078 = !DILocation(line: 55, column: 38, scope: !1068)
!1079 = !DILocation(line: 55, column: 7, scope: !1068)
!1080 = !DILocation(line: 55, column: 9, scope: !1068)
!1081 = !DILocation(line: 55, column: 11, scope: !1068)
!1082 = !DILocation(line: 55, column: 10, scope: !1068)
!1083 = !DILocation(line: 55, column: 14, scope: !1068)
!1084 = !DILocation(line: 55, column: 13, scope: !1068)
!1085 = !DILocation(line: 55, column: 17, scope: !1068)
!1086 = !DILocation(line: 54, column: 26, scope: !1068)
!1087 = !DILocation(line: 54, column: 5, scope: !1068)
!1088 = distinct !{!1088, !1071, !1089}
!1089 = !DILocation(line: 55, column: 40, scope: !1065)
!1090 = !DILocation(line: 53, column: 24, scope: !1060)
!1091 = !DILocation(line: 53, column: 3, scope: !1060)
!1092 = distinct !{!1092, !1063, !1093}
!1093 = !DILocation(line: 55, column: 40, scope: !1057)
!1094 = !DILocation(line: 56, column: 10, scope: !1095)
!1095 = distinct !DILexicalBlock(scope: !951, file: !5, line: 56, column: 3)
!1096 = !DILocation(line: 56, column: 8, scope: !1095)
!1097 = !DILocation(line: 56, column: 15, scope: !1098)
!1098 = distinct !DILexicalBlock(scope: !1095, file: !5, line: 56, column: 3)
!1099 = !DILocation(line: 56, column: 19, scope: !1098)
!1100 = !DILocation(line: 56, column: 17, scope: !1098)
!1101 = !DILocation(line: 56, column: 3, scope: !1095)
!1102 = !DILocation(line: 57, column: 12, scope: !1103)
!1103 = distinct !DILexicalBlock(scope: !1098, file: !5, line: 57, column: 5)
!1104 = !DILocation(line: 57, column: 10, scope: !1103)
!1105 = !DILocation(line: 57, column: 17, scope: !1106)
!1106 = distinct !DILexicalBlock(scope: !1103, file: !5, line: 57, column: 5)
!1107 = !DILocation(line: 57, column: 21, scope: !1106)
!1108 = !DILocation(line: 57, column: 19, scope: !1106)
!1109 = !DILocation(line: 57, column: 5, scope: !1103)
!1110 = !DILocation(line: 58, column: 29, scope: !1106)
!1111 = !DILocation(line: 58, column: 32, scope: !1106)
!1112 = !DILocation(line: 58, column: 33, scope: !1106)
!1113 = !DILocation(line: 58, column: 31, scope: !1106)
!1114 = !DILocation(line: 58, column: 30, scope: !1106)
!1115 = !DILocation(line: 58, column: 40, scope: !1106)
!1116 = !DILocation(line: 58, column: 38, scope: !1106)
!1117 = !DILocation(line: 58, column: 7, scope: !1106)
!1118 = !DILocation(line: 58, column: 9, scope: !1106)
!1119 = !DILocation(line: 58, column: 11, scope: !1106)
!1120 = !DILocation(line: 58, column: 10, scope: !1106)
!1121 = !DILocation(line: 58, column: 14, scope: !1106)
!1122 = !DILocation(line: 58, column: 13, scope: !1106)
!1123 = !DILocation(line: 58, column: 17, scope: !1106)
!1124 = !DILocation(line: 57, column: 26, scope: !1106)
!1125 = !DILocation(line: 57, column: 5, scope: !1106)
!1126 = distinct !{!1126, !1109, !1127}
!1127 = !DILocation(line: 58, column: 40, scope: !1103)
!1128 = !DILocation(line: 56, column: 24, scope: !1098)
!1129 = !DILocation(line: 56, column: 3, scope: !1098)
!1130 = distinct !{!1130, !1101, !1131}
!1131 = !DILocation(line: 58, column: 40, scope: !1095)
!1132 = !DILocation(line: 59, column: 10, scope: !1133)
!1133 = distinct !DILexicalBlock(scope: !951, file: !5, line: 59, column: 3)
!1134 = !DILocation(line: 59, column: 8, scope: !1133)
!1135 = !DILocation(line: 59, column: 15, scope: !1136)
!1136 = distinct !DILexicalBlock(scope: !1133, file: !5, line: 59, column: 3)
!1137 = !DILocation(line: 59, column: 19, scope: !1136)
!1138 = !DILocation(line: 59, column: 17, scope: !1136)
!1139 = !DILocation(line: 59, column: 3, scope: !1133)
!1140 = !DILocation(line: 60, column: 12, scope: !1141)
!1141 = distinct !DILexicalBlock(scope: !1136, file: !5, line: 60, column: 5)
!1142 = !DILocation(line: 60, column: 10, scope: !1141)
!1143 = !DILocation(line: 60, column: 17, scope: !1144)
!1144 = distinct !DILexicalBlock(scope: !1141, file: !5, line: 60, column: 5)
!1145 = !DILocation(line: 60, column: 21, scope: !1144)
!1146 = !DILocation(line: 60, column: 19, scope: !1144)
!1147 = !DILocation(line: 60, column: 5, scope: !1141)
!1148 = !DILocation(line: 61, column: 7, scope: !1144)
!1149 = !DILocation(line: 61, column: 9, scope: !1144)
!1150 = !DILocation(line: 61, column: 11, scope: !1144)
!1151 = !DILocation(line: 61, column: 10, scope: !1144)
!1152 = !DILocation(line: 61, column: 14, scope: !1144)
!1153 = !DILocation(line: 61, column: 13, scope: !1144)
!1154 = !DILocation(line: 61, column: 17, scope: !1144)
!1155 = !DILocation(line: 60, column: 26, scope: !1144)
!1156 = !DILocation(line: 60, column: 5, scope: !1144)
!1157 = distinct !{!1157, !1147, !1158}
!1158 = !DILocation(line: 61, column: 19, scope: !1141)
!1159 = !DILocation(line: 59, column: 24, scope: !1136)
!1160 = !DILocation(line: 59, column: 3, scope: !1136)
!1161 = distinct !{!1161, !1139, !1162}
!1162 = !DILocation(line: 61, column: 19, scope: !1133)
!1163 = !DILocation(line: 62, column: 10, scope: !1164)
!1164 = distinct !DILexicalBlock(scope: !951, file: !5, line: 62, column: 3)
!1165 = !DILocation(line: 62, column: 8, scope: !1164)
!1166 = !DILocation(line: 62, column: 15, scope: !1167)
!1167 = distinct !DILexicalBlock(scope: !1164, file: !5, line: 62, column: 3)
!1168 = !DILocation(line: 62, column: 19, scope: !1167)
!1169 = !DILocation(line: 62, column: 17, scope: !1167)
!1170 = !DILocation(line: 62, column: 3, scope: !1164)
!1171 = !DILocation(line: 63, column: 12, scope: !1172)
!1172 = distinct !DILexicalBlock(scope: !1167, file: !5, line: 63, column: 5)
!1173 = !DILocation(line: 63, column: 10, scope: !1172)
!1174 = !DILocation(line: 63, column: 17, scope: !1175)
!1175 = distinct !DILexicalBlock(scope: !1172, file: !5, line: 63, column: 5)
!1176 = !DILocation(line: 63, column: 21, scope: !1175)
!1177 = !DILocation(line: 63, column: 19, scope: !1175)
!1178 = !DILocation(line: 63, column: 5, scope: !1172)
!1179 = !DILocation(line: 64, column: 7, scope: !1175)
!1180 = !DILocation(line: 64, column: 9, scope: !1175)
!1181 = !DILocation(line: 64, column: 11, scope: !1175)
!1182 = !DILocation(line: 64, column: 10, scope: !1175)
!1183 = !DILocation(line: 64, column: 14, scope: !1175)
!1184 = !DILocation(line: 64, column: 13, scope: !1175)
!1185 = !DILocation(line: 64, column: 17, scope: !1175)
!1186 = !DILocation(line: 63, column: 26, scope: !1175)
!1187 = !DILocation(line: 63, column: 5, scope: !1175)
!1188 = distinct !{!1188, !1178, !1189}
!1189 = !DILocation(line: 64, column: 19, scope: !1172)
!1190 = !DILocation(line: 62, column: 24, scope: !1167)
!1191 = !DILocation(line: 62, column: 3, scope: !1167)
!1192 = distinct !{!1192, !1170, !1193}
!1193 = !DILocation(line: 64, column: 19, scope: !1164)
!1194 = !DILocation(line: 65, column: 10, scope: !1195)
!1195 = distinct !DILexicalBlock(scope: !951, file: !5, line: 65, column: 3)
!1196 = !DILocation(line: 65, column: 8, scope: !1195)
!1197 = !DILocation(line: 65, column: 15, scope: !1198)
!1198 = distinct !DILexicalBlock(scope: !1195, file: !5, line: 65, column: 3)
!1199 = !DILocation(line: 65, column: 19, scope: !1198)
!1200 = !DILocation(line: 65, column: 17, scope: !1198)
!1201 = !DILocation(line: 65, column: 3, scope: !1195)
!1202 = !DILocation(line: 66, column: 12, scope: !1203)
!1203 = distinct !DILexicalBlock(scope: !1198, file: !5, line: 66, column: 5)
!1204 = !DILocation(line: 66, column: 10, scope: !1203)
!1205 = !DILocation(line: 66, column: 17, scope: !1206)
!1206 = distinct !DILexicalBlock(scope: !1203, file: !5, line: 66, column: 5)
!1207 = !DILocation(line: 66, column: 21, scope: !1206)
!1208 = !DILocation(line: 66, column: 19, scope: !1206)
!1209 = !DILocation(line: 66, column: 5, scope: !1203)
!1210 = !DILocation(line: 67, column: 7, scope: !1206)
!1211 = !DILocation(line: 67, column: 9, scope: !1206)
!1212 = !DILocation(line: 67, column: 11, scope: !1206)
!1213 = !DILocation(line: 67, column: 10, scope: !1206)
!1214 = !DILocation(line: 67, column: 14, scope: !1206)
!1215 = !DILocation(line: 67, column: 13, scope: !1206)
!1216 = !DILocation(line: 67, column: 17, scope: !1206)
!1217 = !DILocation(line: 66, column: 26, scope: !1206)
!1218 = !DILocation(line: 66, column: 5, scope: !1206)
!1219 = distinct !{!1219, !1209, !1220}
!1220 = !DILocation(line: 67, column: 19, scope: !1203)
!1221 = !DILocation(line: 65, column: 24, scope: !1198)
!1222 = !DILocation(line: 65, column: 3, scope: !1198)
!1223 = distinct !{!1223, !1201, !1224}
!1224 = !DILocation(line: 67, column: 19, scope: !1195)
!1225 = !DILocation(line: 68, column: 1, scope: !951)
!1226 = distinct !DISubprogram(name: "cudaMalloc<double>", linkageName: "_ZL10cudaMallocIdE9cudaErrorPPT_m", scope: !1227, file: !1227, line: 490, type: !1228, scopeLine: 494, flags: DIFlagPrototyped, spFlags: DISPFlagLocalToUnit | DISPFlagDefinition, unit: !4, templateParams: !1232, retainedNodes: !695)
!1227 = !DIFile(filename: "/usr/local/cuda/include/cuda_runtime.h", directory: "")
!1228 = !DISubroutineType(types: !1229)
!1229 = !{!1230, !1231, !391}
!1230 = !DIDerivedType(tag: DW_TAG_typedef, name: "cudaError_t", file: !8, line: 1419, baseType: !16)
!1231 = !DIDerivedType(tag: DW_TAG_pointer_type, baseType: !99, size: 64)
!1232 = !{!1233}
!1233 = !DITemplateTypeParameter(name: "T", type: !100)
!1234 = !DILocalVariable(name: "devPtr", arg: 1, scope: !1226, file: !1227, line: 491, type: !1231)
!1235 = !DILocation(line: 491, column: 12, scope: !1226)
!1236 = !DILocalVariable(name: "size", arg: 2, scope: !1226, file: !1227, line: 492, type: !391)
!1237 = !DILocation(line: 492, column: 12, scope: !1226)
!1238 = !DILocation(line: 495, column: 38, scope: !1226)
!1239 = !DILocation(line: 495, column: 23, scope: !1226)
!1240 = !DILocation(line: 495, column: 46, scope: !1226)
!1241 = !DILocation(line: 495, column: 10, scope: !1226)
!1242 = !DILocation(line: 495, column: 3, scope: !1226)
!1243 = distinct !DISubprogram(name: "kernel", linkageName: "_ZL6kerneliiiiiPdS_S_S_S_S_S_", scope: !5, file: !5, line: 87, type: !952, scopeLine: 94, flags: DIFlagPrototyped, spFlags: DISPFlagLocalToUnit | DISPFlagDefinition, unit: !4, retainedNodes: !695)
!1244 = !DILocalVariable(name: "ni", arg: 1, scope: !1243, file: !5, line: 87, type: !110)
!1245 = !DILocation(line: 87, column: 24, scope: !1243)
!1246 = !DILocalVariable(name: "nj", arg: 2, scope: !1243, file: !5, line: 87, type: !110)
!1247 = !DILocation(line: 87, column: 32, scope: !1243)
!1248 = !DILocalVariable(name: "nk", arg: 3, scope: !1243, file: !5, line: 87, type: !110)
!1249 = !DILocation(line: 87, column: 40, scope: !1243)
!1250 = !DILocalVariable(name: "nl", arg: 4, scope: !1243, file: !5, line: 87, type: !110)
!1251 = !DILocation(line: 87, column: 48, scope: !1243)
!1252 = !DILocalVariable(name: "nm", arg: 5, scope: !1243, file: !5, line: 87, type: !110)
!1253 = !DILocation(line: 87, column: 56, scope: !1243)
!1254 = !DILocalVariable(name: "E", arg: 6, scope: !1243, file: !5, line: 88, type: !99)
!1255 = !DILocation(line: 88, column: 28, scope: !1243)
!1256 = !DILocalVariable(name: "A", arg: 7, scope: !1243, file: !5, line: 89, type: !99)
!1257 = !DILocation(line: 89, column: 28, scope: !1243)
!1258 = !DILocalVariable(name: "B", arg: 8, scope: !1243, file: !5, line: 90, type: !99)
!1259 = !DILocation(line: 90, column: 28, scope: !1243)
!1260 = !DILocalVariable(name: "F", arg: 9, scope: !1243, file: !5, line: 91, type: !99)
!1261 = !DILocation(line: 91, column: 28, scope: !1243)
!1262 = !DILocalVariable(name: "C", arg: 10, scope: !1243, file: !5, line: 92, type: !99)
!1263 = !DILocation(line: 92, column: 28, scope: !1243)
!1264 = !DILocalVariable(name: "D", arg: 11, scope: !1243, file: !5, line: 93, type: !99)
!1265 = !DILocation(line: 93, column: 28, scope: !1243)
!1266 = !DILocalVariable(name: "G", arg: 12, scope: !1243, file: !5, line: 94, type: !99)
!1267 = !DILocation(line: 94, column: 28, scope: !1243)
!1268 = !DILocalVariable(name: "threadsPerBlock", scope: !1243, file: !5, line: 95, type: !9)
!1269 = !DILocation(line: 95, column: 12, scope: !1243)
!1270 = !DILocalVariable(name: "block", scope: !1243, file: !5, line: 96, type: !1271)
!1271 = !DIDerivedType(tag: DW_TAG_typedef, name: "dim3", file: !1272, line: 427, baseType: !1273)
!1272 = !DIFile(filename: "/usr/local/cuda/include/vector_types.h", directory: "")
!1273 = distinct !DICompositeType(tag: DW_TAG_structure_type, name: "dim3", file: !1272, line: 417, size: 96, flags: DIFlagTypePassByValue | DIFlagNonTrivial, elements: !1274, identifier: "_ZTS4dim3")
!1274 = !{!1275, !1276, !1277, !1278, !1282, !1291}
!1275 = !DIDerivedType(tag: DW_TAG_member, name: "x", scope: !1273, file: !1272, line: 419, baseType: !9, size: 32)
!1276 = !DIDerivedType(tag: DW_TAG_member, name: "y", scope: !1273, file: !1272, line: 419, baseType: !9, size: 32, offset: 32)
!1277 = !DIDerivedType(tag: DW_TAG_member, name: "z", scope: !1273, file: !1272, line: 419, baseType: !9, size: 32, offset: 64)
!1278 = !DISubprogram(name: "dim3", scope: !1273, file: !1272, line: 421, type: !1279, scopeLine: 421, flags: DIFlagPrototyped, spFlags: 0)
!1279 = !DISubroutineType(types: !1280)
!1280 = !{null, !1281, !9, !9, !9}
!1281 = !DIDerivedType(tag: DW_TAG_pointer_type, baseType: !1273, size: 64, flags: DIFlagArtificial | DIFlagObjectPointer)
!1282 = !DISubprogram(name: "dim3", scope: !1273, file: !1272, line: 422, type: !1283, scopeLine: 422, flags: DIFlagPrototyped, spFlags: 0)
!1283 = !DISubroutineType(types: !1284)
!1284 = !{null, !1281, !1285}
!1285 = !DIDerivedType(tag: DW_TAG_typedef, name: "uint3", file: !1272, line: 383, baseType: !1286)
!1286 = distinct !DICompositeType(tag: DW_TAG_structure_type, name: "uint3", file: !1272, line: 190, size: 96, flags: DIFlagTypePassByValue, elements: !1287, identifier: "_ZTS5uint3")
!1287 = !{!1288, !1289, !1290}
!1288 = !DIDerivedType(tag: DW_TAG_member, name: "x", scope: !1286, file: !1272, line: 192, baseType: !9, size: 32)
!1289 = !DIDerivedType(tag: DW_TAG_member, name: "y", scope: !1286, file: !1272, line: 192, baseType: !9, size: 32, offset: 32)
!1290 = !DIDerivedType(tag: DW_TAG_member, name: "z", scope: !1286, file: !1272, line: 192, baseType: !9, size: 32, offset: 64)
!1291 = !DISubprogram(name: "operator uint3", linkageName: "_ZN4dim3cv5uint3Ev", scope: !1273, file: !1272, line: 423, type: !1292, scopeLine: 423, flags: DIFlagPrototyped, spFlags: 0)
!1292 = !DISubroutineType(types: !1293)
!1293 = !{!1285, !1281}
!1294 = !DILocation(line: 96, column: 8, scope: !1243)
!1295 = !DILocation(line: 96, column: 14, scope: !1243)
!1296 = !DILocation(line: 96, column: 30, scope: !1243)
!1297 = !DILocalVariable(name: "grid", scope: !1298, file: !5, line: 99, type: !1271)
!1298 = distinct !DILexicalBlock(scope: !1243, file: !5, line: 98, column: 3)
!1299 = !DILocation(line: 99, column: 10, scope: !1298)
!1300 = !DILocation(line: 99, column: 26, scope: !1298)
!1301 = !DILocation(line: 99, column: 36, scope: !1298)
!1302 = !DILocation(line: 99, column: 15, scope: !1298)
!1303 = !DILocation(line: 99, column: 51, scope: !1298)
!1304 = !DILocation(line: 99, column: 61, scope: !1298)
!1305 = !DILocation(line: 99, column: 40, scope: !1298)
!1306 = !DILocation(line: 100, column: 22, scope: !1298)
!1307 = !DILocation(line: 100, column: 28, scope: !1298)
!1308 = !DILocation(line: 100, column: 19, scope: !1298)
!1309 = !DILocation(line: 100, column: 5, scope: !1298)
!1310 = !DILocation(line: 100, column: 37, scope: !1298)
!1311 = !DILocation(line: 100, column: 41, scope: !1298)
!1312 = !DILocation(line: 100, column: 45, scope: !1298)
!1313 = !DILocation(line: 100, column: 49, scope: !1298)
!1314 = !DILocation(line: 100, column: 52, scope: !1298)
!1315 = !DILocation(line: 100, column: 55, scope: !1298)
!1316 = !DILocalVariable(name: "grid", scope: !1317, file: !5, line: 105, type: !1271)
!1317 = distinct !DILexicalBlock(scope: !1243, file: !5, line: 104, column: 3)
!1318 = !DILocation(line: 105, column: 10, scope: !1317)
!1319 = !DILocation(line: 105, column: 26, scope: !1317)
!1320 = !DILocation(line: 105, column: 36, scope: !1317)
!1321 = !DILocation(line: 105, column: 15, scope: !1317)
!1322 = !DILocation(line: 105, column: 51, scope: !1317)
!1323 = !DILocation(line: 105, column: 61, scope: !1317)
!1324 = !DILocation(line: 105, column: 40, scope: !1317)
!1325 = !DILocation(line: 106, column: 22, scope: !1317)
!1326 = !DILocation(line: 106, column: 28, scope: !1317)
!1327 = !DILocation(line: 106, column: 19, scope: !1317)
!1328 = !DILocation(line: 106, column: 5, scope: !1317)
!1329 = !DILocation(line: 106, column: 37, scope: !1317)
!1330 = !DILocation(line: 106, column: 41, scope: !1317)
!1331 = !DILocation(line: 106, column: 45, scope: !1317)
!1332 = !DILocation(line: 106, column: 49, scope: !1317)
!1333 = !DILocation(line: 106, column: 52, scope: !1317)
!1334 = !DILocation(line: 106, column: 55, scope: !1317)
!1335 = !DILocalVariable(name: "grid", scope: !1336, file: !5, line: 110, type: !1271)
!1336 = distinct !DILexicalBlock(scope: !1243, file: !5, line: 109, column: 3)
!1337 = !DILocation(line: 110, column: 10, scope: !1336)
!1338 = !DILocation(line: 110, column: 26, scope: !1336)
!1339 = !DILocation(line: 110, column: 36, scope: !1336)
!1340 = !DILocation(line: 110, column: 15, scope: !1336)
!1341 = !DILocation(line: 110, column: 51, scope: !1336)
!1342 = !DILocation(line: 110, column: 61, scope: !1336)
!1343 = !DILocation(line: 110, column: 40, scope: !1336)
!1344 = !DILocation(line: 111, column: 22, scope: !1336)
!1345 = !DILocation(line: 111, column: 28, scope: !1336)
!1346 = !DILocation(line: 111, column: 19, scope: !1336)
!1347 = !DILocation(line: 111, column: 5, scope: !1336)
!1348 = !DILocation(line: 111, column: 37, scope: !1336)
!1349 = !DILocation(line: 111, column: 41, scope: !1336)
!1350 = !DILocation(line: 111, column: 45, scope: !1336)
!1351 = !DILocation(line: 111, column: 49, scope: !1336)
!1352 = !DILocation(line: 111, column: 52, scope: !1336)
!1353 = !DILocation(line: 111, column: 55, scope: !1336)
!1354 = !DILocation(line: 113, column: 1, scope: !1243)
!1355 = distinct !DISubprogram(name: "print_array", linkageName: "_ZL11print_arrayiiPd", scope: !5, file: !5, line: 74, type: !1356, scopeLine: 76, flags: DIFlagPrototyped, spFlags: DISPFlagLocalToUnit | DISPFlagDefinition, unit: !4, retainedNodes: !695)
!1356 = !DISubroutineType(types: !1357)
!1357 = !{null, !110, !110, !99}
!1358 = !DILocalVariable(name: "ni", arg: 1, scope: !1355, file: !5, line: 74, type: !110)
!1359 = !DILocation(line: 74, column: 22, scope: !1355)
!1360 = !DILocalVariable(name: "nl", arg: 2, scope: !1355, file: !5, line: 74, type: !110)
!1361 = !DILocation(line: 74, column: 30, scope: !1355)
!1362 = !DILocalVariable(name: "G", arg: 3, scope: !1355, file: !5, line: 75, type: !99)
!1363 = !DILocation(line: 75, column: 13, scope: !1355)
!1364 = !DILocalVariable(name: "i", scope: !1355, file: !5, line: 77, type: !110)
!1365 = !DILocation(line: 77, column: 7, scope: !1355)
!1366 = !DILocalVariable(name: "j", scope: !1355, file: !5, line: 77, type: !110)
!1367 = !DILocation(line: 77, column: 10, scope: !1355)
!1368 = !DILocation(line: 79, column: 10, scope: !1369)
!1369 = distinct !DILexicalBlock(scope: !1355, file: !5, line: 79, column: 3)
!1370 = !DILocation(line: 79, column: 8, scope: !1369)
!1371 = !DILocation(line: 79, column: 15, scope: !1372)
!1372 = distinct !DILexicalBlock(scope: !1369, file: !5, line: 79, column: 3)
!1373 = !DILocation(line: 79, column: 19, scope: !1372)
!1374 = !DILocation(line: 79, column: 17, scope: !1372)
!1375 = !DILocation(line: 79, column: 3, scope: !1369)
!1376 = !DILocation(line: 80, column: 12, scope: !1377)
!1377 = distinct !DILexicalBlock(scope: !1372, file: !5, line: 80, column: 5)
!1378 = !DILocation(line: 80, column: 10, scope: !1377)
!1379 = !DILocation(line: 80, column: 17, scope: !1380)
!1380 = distinct !DILexicalBlock(scope: !1377, file: !5, line: 80, column: 5)
!1381 = !DILocation(line: 80, column: 21, scope: !1380)
!1382 = !DILocation(line: 80, column: 19, scope: !1380)
!1383 = !DILocation(line: 80, column: 5, scope: !1377)
!1384 = !DILocation(line: 81, column: 16, scope: !1385)
!1385 = distinct !DILexicalBlock(scope: !1380, file: !5, line: 80, column: 30)
!1386 = !DILocation(line: 81, column: 35, scope: !1385)
!1387 = !DILocation(line: 81, column: 37, scope: !1385)
!1388 = !DILocation(line: 81, column: 39, scope: !1385)
!1389 = !DILocation(line: 81, column: 38, scope: !1385)
!1390 = !DILocation(line: 81, column: 42, scope: !1385)
!1391 = !DILocation(line: 81, column: 41, scope: !1385)
!1392 = !DILocation(line: 81, column: 7, scope: !1385)
!1393 = !DILocation(line: 82, column: 12, scope: !1394)
!1394 = distinct !DILexicalBlock(scope: !1385, file: !5, line: 82, column: 11)
!1395 = !DILocation(line: 82, column: 16, scope: !1394)
!1396 = !DILocation(line: 82, column: 14, scope: !1394)
!1397 = !DILocation(line: 82, column: 21, scope: !1394)
!1398 = !DILocation(line: 82, column: 19, scope: !1394)
!1399 = !DILocation(line: 82, column: 24, scope: !1394)
!1400 = !DILocation(line: 82, column: 29, scope: !1394)
!1401 = !DILocation(line: 82, column: 11, scope: !1385)
!1402 = !DILocation(line: 82, column: 44, scope: !1394)
!1403 = !DILocation(line: 82, column: 35, scope: !1394)
!1404 = !DILocation(line: 83, column: 5, scope: !1385)
!1405 = !DILocation(line: 80, column: 26, scope: !1380)
!1406 = !DILocation(line: 80, column: 5, scope: !1380)
!1407 = distinct !{!1407, !1383, !1408}
!1408 = !DILocation(line: 83, column: 5, scope: !1377)
!1409 = !DILocation(line: 79, column: 24, scope: !1372)
!1410 = !DILocation(line: 79, column: 3, scope: !1372)
!1411 = distinct !{!1411, !1375, !1412}
!1412 = !DILocation(line: 83, column: 5, scope: !1369)
!1413 = !DILocation(line: 84, column: 12, scope: !1355)
!1414 = !DILocation(line: 84, column: 3, scope: !1355)
!1415 = !DILocation(line: 85, column: 1, scope: !1355)
!1416 = distinct !DISubprogram(name: "dim3", linkageName: "_ZN4dim3C2Ejjj", scope: !1273, file: !1272, line: 421, type: !1279, scopeLine: 421, flags: DIFlagPrototyped, spFlags: DISPFlagDefinition, unit: !4, declaration: !1278, retainedNodes: !695)
!1417 = !DILocalVariable(name: "this", arg: 1, scope: !1416, type: !1418, flags: DIFlagArtificial | DIFlagObjectPointer)
!1418 = !DIDerivedType(tag: DW_TAG_pointer_type, baseType: !1273, size: 64)
!1419 = !DILocation(line: 0, scope: !1416)
!1420 = !DILocalVariable(name: "vx", arg: 2, scope: !1416, file: !1272, line: 421, type: !9)
!1421 = !DILocation(line: 421, column: 43, scope: !1416)
!1422 = !DILocalVariable(name: "vy", arg: 3, scope: !1416, file: !1272, line: 421, type: !9)
!1423 = !DILocation(line: 421, column: 64, scope: !1416)
!1424 = !DILocalVariable(name: "vz", arg: 4, scope: !1416, file: !1272, line: 421, type: !9)
!1425 = !DILocation(line: 421, column: 85, scope: !1416)
!1426 = !DILocation(line: 421, column: 95, scope: !1416)
!1427 = !DILocation(line: 421, column: 97, scope: !1416)
!1428 = !DILocation(line: 421, column: 102, scope: !1416)
!1429 = !DILocation(line: 421, column: 104, scope: !1416)
!1430 = !DILocation(line: 421, column: 109, scope: !1416)
!1431 = !DILocation(line: 421, column: 111, scope: !1416)
!1432 = !DILocation(line: 421, column: 116, scope: !1416)
!1433 = distinct !DISubprogram(name: "num_blocks", linkageName: "_ZL10num_blocksii", scope: !5, file: !5, line: 31, type: !1434, scopeLine: 31, flags: DIFlagPrototyped, spFlags: DISPFlagLocalToUnit | DISPFlagDefinition, unit: !4, retainedNodes: !695)
!1434 = !DISubroutineType(types: !1435)
!1435 = !{!9, !110, !110}
!1436 = !DILocalVariable(name: "num", arg: 1, scope: !1433, file: !5, line: 31, type: !110)
!1437 = !DILocation(line: 31, column: 32, scope: !1433)
!1438 = !DILocalVariable(name: "factor", arg: 2, scope: !1433, file: !5, line: 31, type: !110)
!1439 = !DILocation(line: 31, column: 41, scope: !1433)
!1440 = !DILocation(line: 32, column: 11, scope: !1433)
!1441 = !DILocation(line: 32, column: 17, scope: !1433)
!1442 = !DILocation(line: 32, column: 15, scope: !1433)
!1443 = !DILocation(line: 32, column: 24, scope: !1433)
!1444 = !DILocation(line: 32, column: 31, scope: !1433)
!1445 = !DILocation(line: 32, column: 29, scope: !1433)
!1446 = !DILocation(line: 32, column: 3, scope: !1433)
